ARM GAS  C:\Users\cdrow\AppData\Local\Temp\cczTp1Zf.s 			page 1


   1              		.syntax unified
   2              		.cpu cortex-m0plus
   3              		.fpu softvfp
   4              		.eabi_attribute 20, 1
   5              		.eabi_attribute 21, 1
   6              		.eabi_attribute 23, 3
   7              		.eabi_attribute 24, 1
   8              		.eabi_attribute 25, 1
   9              		.eabi_attribute 26, 1
  10              		.eabi_attribute 30, 1
  11              		.eabi_attribute 34, 0
  12              		.eabi_attribute 18, 4
  13              		.thumb
  14              		.syntax unified
  15              		.file	"ADC_1_PM.c"
  16              		.text
  17              	.Ltext0:
  18              		.cfi_sections	.debug_frame
  19              		.section	.text.ADC_1_Sleep,"ax",%progbits
  20              		.align	2
  21              		.global	ADC_1_Sleep
  22              		.code	16
  23              		.thumb_func
  24              		.type	ADC_1_Sleep, %function
  25              	ADC_1_Sleep:
  26              	.LFB1:
  27              		.file 1 "Generated_Source\\PSoC4\\ADC_1_PM.c"
   1:Generated_Source\PSoC4/ADC_1_PM.c **** /***************************************************************************//**
   2:Generated_Source\PSoC4/ADC_1_PM.c **** * \file ADC_1_PM.c
   3:Generated_Source\PSoC4/ADC_1_PM.c **** * \version 3.10
   4:Generated_Source\PSoC4/ADC_1_PM.c **** *
   5:Generated_Source\PSoC4/ADC_1_PM.c **** * \brief
   6:Generated_Source\PSoC4/ADC_1_PM.c **** *  This file provides the power manager source code to the API for
   7:Generated_Source\PSoC4/ADC_1_PM.c **** *  ADC_1 component.
   8:Generated_Source\PSoC4/ADC_1_PM.c **** *
   9:Generated_Source\PSoC4/ADC_1_PM.c **** ********************************************************************************
  10:Generated_Source\PSoC4/ADC_1_PM.c **** * \copyright
  11:Generated_Source\PSoC4/ADC_1_PM.c **** * (c) 2015-2018, Cypress Semiconductor Corporation. All rights reserved.
  12:Generated_Source\PSoC4/ADC_1_PM.c **** * This software, including source code, documentation and related
  13:Generated_Source\PSoC4/ADC_1_PM.c **** * materials ("Software"), is owned by Cypress Semiconductor
  14:Generated_Source\PSoC4/ADC_1_PM.c **** * Corporation ("Cypress") and is protected by and subject to worldwide
  15:Generated_Source\PSoC4/ADC_1_PM.c **** * patent protection (United States and foreign), United States copyright
  16:Generated_Source\PSoC4/ADC_1_PM.c **** * laws and international treaty provisions. Therefore, you may use this
  17:Generated_Source\PSoC4/ADC_1_PM.c **** * Software only as provided in the license agreement accompanying the
  18:Generated_Source\PSoC4/ADC_1_PM.c **** * software package from which you obtained this Software ("EULA").
  19:Generated_Source\PSoC4/ADC_1_PM.c **** * If no EULA applies, Cypress hereby grants you a personal, nonexclusive,
  20:Generated_Source\PSoC4/ADC_1_PM.c **** * non-transferable license to copy, modify, and compile the
  21:Generated_Source\PSoC4/ADC_1_PM.c **** * Software source code solely for use in connection with Cypress's
  22:Generated_Source\PSoC4/ADC_1_PM.c **** * integrated circuit products. Any reproduction, modification, translation,
  23:Generated_Source\PSoC4/ADC_1_PM.c **** * compilation, or representation of this Software except as specified
  24:Generated_Source\PSoC4/ADC_1_PM.c **** * above is prohibited without the express written permission of Cypress.
  25:Generated_Source\PSoC4/ADC_1_PM.c **** * Disclaimer: THIS SOFTWARE IS PROVIDED AS-IS, WITH NO
  26:Generated_Source\PSoC4/ADC_1_PM.c **** * WARRANTY OF ANY KIND, EXPRESS OR IMPLIED, INCLUDING,
  27:Generated_Source\PSoC4/ADC_1_PM.c **** * BUT NOT LIMITED TO, NONINFRINGEMENT, IMPLIED
  28:Generated_Source\PSoC4/ADC_1_PM.c **** * WARRANTIES OF MERCHANTABILITY AND FITNESS FOR A
  29:Generated_Source\PSoC4/ADC_1_PM.c **** * PARTICULAR PURPOSE. Cypress reserves the right to make
  30:Generated_Source\PSoC4/ADC_1_PM.c **** * changes to the Software without notice. Cypress does not assume any
ARM GAS  C:\Users\cdrow\AppData\Local\Temp\cczTp1Zf.s 			page 2


  31:Generated_Source\PSoC4/ADC_1_PM.c **** * liability arising out of the application or use of the Software or any
  32:Generated_Source\PSoC4/ADC_1_PM.c **** * product or circuit described in the Software. Cypress does not
  33:Generated_Source\PSoC4/ADC_1_PM.c **** * authorize its products for use in any products where a malfunction or
  34:Generated_Source\PSoC4/ADC_1_PM.c **** * failure of the Cypress product may reasonably be expected to result in
  35:Generated_Source\PSoC4/ADC_1_PM.c **** * significant property damage, injury or death ("High Risk Product"). By
  36:Generated_Source\PSoC4/ADC_1_PM.c **** * including Cypress's product in a High Risk Product, the manufacturer
  37:Generated_Source\PSoC4/ADC_1_PM.c **** * of such system or application assumes all risk of such use and in doing
  38:Generated_Source\PSoC4/ADC_1_PM.c **** * so agrees to indemnify Cypress against all liability.
  39:Generated_Source\PSoC4/ADC_1_PM.c **** *******************************************************************************/
  40:Generated_Source\PSoC4/ADC_1_PM.c **** 
  41:Generated_Source\PSoC4/ADC_1_PM.c **** #include "ADC_1.h"
  42:Generated_Source\PSoC4/ADC_1_PM.c **** 
  43:Generated_Source\PSoC4/ADC_1_PM.c **** /**
  44:Generated_Source\PSoC4/ADC_1_PM.c **** * \addtogroup group_globals
  45:Generated_Source\PSoC4/ADC_1_PM.c **** * @{
  46:Generated_Source\PSoC4/ADC_1_PM.c **** */
  47:Generated_Source\PSoC4/ADC_1_PM.c **** /** Contains configuration of ADC_1 before sleep. Enable state is the
  48:Generated_Source\PSoC4/ADC_1_PM.c **** *   only data required to be preserved. */
  49:Generated_Source\PSoC4/ADC_1_PM.c **** static ADC_1_BACKUP_STRUCT  ADC_1_backup =
  50:Generated_Source\PSoC4/ADC_1_PM.c **** {
  51:Generated_Source\PSoC4/ADC_1_PM.c ****     0u,
  52:Generated_Source\PSoC4/ADC_1_PM.c **** };
  53:Generated_Source\PSoC4/ADC_1_PM.c **** /** @} globals */
  54:Generated_Source\PSoC4/ADC_1_PM.c **** 
  55:Generated_Source\PSoC4/ADC_1_PM.c **** 
  56:Generated_Source\PSoC4/ADC_1_PM.c **** /*******************************************************************************
  57:Generated_Source\PSoC4/ADC_1_PM.c **** * Function Name: ADC_1_Sleep
  58:Generated_Source\PSoC4/ADC_1_PM.c **** ****************************************************************************//**
  59:Generated_Source\PSoC4/ADC_1_PM.c **** *
  60:Generated_Source\PSoC4/ADC_1_PM.c **** * \brief This is the preferred routine to prepare the component for sleep. The
  61:Generated_Source\PSoC4/ADC_1_PM.c **** * ADC_1_Sleep() routine saves the current component state. Then it
  62:Generated_Source\PSoC4/ADC_1_PM.c **** * calls the ADC_1_Stop() function and calls
  63:Generated_Source\PSoC4/ADC_1_PM.c **** * ADC_1_SaveConfig() to save the hardware configuration.
  64:Generated_Source\PSoC4/ADC_1_PM.c **** *
  65:Generated_Source\PSoC4/ADC_1_PM.c **** * Call the ADC_1_Sleep() function before calling the
  66:Generated_Source\PSoC4/ADC_1_PM.c **** * CySysPmDeepSleep() or the CySysPmHibernate() function. See the PSoC Creator
  67:Generated_Source\PSoC4/ADC_1_PM.c **** * System Reference Guide for more information about power-management functions.
  68:Generated_Source\PSoC4/ADC_1_PM.c **** *
  69:Generated_Source\PSoC4/ADC_1_PM.c **** * \param None
  70:Generated_Source\PSoC4/ADC_1_PM.c **** *
  71:Generated_Source\PSoC4/ADC_1_PM.c **** * \return None
  72:Generated_Source\PSoC4/ADC_1_PM.c **** *
  73:Generated_Source\PSoC4/ADC_1_PM.c **** * \sideeffect If this function is called twice in the enable state of the
  74:Generated_Source\PSoC4/ADC_1_PM.c **** * component, the disabled state of the component will be stored. So
  75:Generated_Source\PSoC4/ADC_1_PM.c **** * ADC_1_Enable() and ADC_1_StartConvert() must be called
  76:Generated_Source\PSoC4/ADC_1_PM.c **** * after ADC_1_Wakeup() in this case.
  77:Generated_Source\PSoC4/ADC_1_PM.c **** *
  78:Generated_Source\PSoC4/ADC_1_PM.c **** * \globalvars
  79:Generated_Source\PSoC4/ADC_1_PM.c **** *  \ref ADC_1_backup (W)
  80:Generated_Source\PSoC4/ADC_1_PM.c **** *
  81:Generated_Source\PSoC4/ADC_1_PM.c **** * \globalvars
  82:Generated_Source\PSoC4/ADC_1_PM.c **** *  \ref ADC_1_backup
  83:Generated_Source\PSoC4/ADC_1_PM.c **** *
  84:Generated_Source\PSoC4/ADC_1_PM.c **** *******************************************************************************/
  85:Generated_Source\PSoC4/ADC_1_PM.c **** void ADC_1_Sleep(void)
  86:Generated_Source\PSoC4/ADC_1_PM.c **** {
  28              		.loc 1 86 0
ARM GAS  C:\Users\cdrow\AppData\Local\Temp\cczTp1Zf.s 			page 3


  29              		.cfi_startproc
  30              		@ args = 0, pretend = 0, frame = 0
  31              		@ frame_needed = 0, uses_anonymous_args = 0
  32 0000 10B5     		push	{r4, lr}
  33              		.cfi_def_cfa_offset 8
  34              		.cfi_offset 4, -8
  35              		.cfi_offset 14, -4
  87:Generated_Source\PSoC4/ADC_1_PM.c ****     ADC_1_backup.enableState = 0u;
  36              		.loc 1 87 0
  37 0002 0022     		movs	r2, #0
  38 0004 114B     		ldr	r3, .L5
  39 0006 1A70     		strb	r2, [r3]
  88:Generated_Source\PSoC4/ADC_1_PM.c **** 
  89:Generated_Source\PSoC4/ADC_1_PM.c ****     if((ADC_1_SAR_CTRL_REG  & ADC_1_SAR_CTRL_ENABLED_MSK) != 0u)
  40              		.loc 1 89 0
  41 0008 114B     		ldr	r3, .L5+4
  42 000a 1B68     		ldr	r3, [r3]
  43 000c 002B     		cmp	r3, #0
  44 000e 0DDA     		bge	.L2
  90:Generated_Source\PSoC4/ADC_1_PM.c ****     {
  91:Generated_Source\PSoC4/ADC_1_PM.c ****         ADC_1_backup.enableState |= ADC_1_ENABLED;
  45              		.loc 1 91 0
  46 0010 0132     		adds	r2, r2, #1
  47 0012 0E4B     		ldr	r3, .L5
  48 0014 1A70     		strb	r2, [r3]
  92:Generated_Source\PSoC4/ADC_1_PM.c ****         if((ADC_1_SAR_SAMPLE_CTRL_REG & ADC_1_SAR_SAMPLE_CTRL_CONTINUOUS_MSK) != 0u)
  49              		.loc 1 92 0
  50 0016 0F4B     		ldr	r3, .L5+8
  51 0018 1B68     		ldr	r3, [r3]
  52 001a DB03     		lsls	r3, r3, #15
  53 001c 02D5     		bpl	.L3
  93:Generated_Source\PSoC4/ADC_1_PM.c ****         {
  94:Generated_Source\PSoC4/ADC_1_PM.c ****             ADC_1_backup.enableState |= ADC_1_STARTED;
  54              		.loc 1 94 0
  55 001e 0232     		adds	r2, r2, #2
  56 0020 0A4B     		ldr	r3, .L5
  57 0022 1A70     		strb	r2, [r3]
  58              	.L3:
  95:Generated_Source\PSoC4/ADC_1_PM.c ****         }
  96:Generated_Source\PSoC4/ADC_1_PM.c **** 
  97:Generated_Source\PSoC4/ADC_1_PM.c ****         ADC_1_StopConvert();
  59              		.loc 1 97 0
  60 0024 FFF7FEFF 		bl	ADC_1_StopConvert
  61              	.LVL0:
  98:Generated_Source\PSoC4/ADC_1_PM.c ****         ADC_1_Stop();
  62              		.loc 1 98 0
  63 0028 FFF7FEFF 		bl	ADC_1_Stop
  64              	.LVL1:
  65              	.L2:
  99:Generated_Source\PSoC4/ADC_1_PM.c ****     }
 100:Generated_Source\PSoC4/ADC_1_PM.c **** 
 101:Generated_Source\PSoC4/ADC_1_PM.c ****     /* Disable the SAR internal pump before entering the chip low power mode */
 102:Generated_Source\PSoC4/ADC_1_PM.c ****     if((ADC_1_SAR_CTRL_REG & ADC_1_SAR_CTRL_BOOSTPUMP_EN_MSK) != 0u)
  66              		.loc 1 102 0
  67 002c 084B     		ldr	r3, .L5+4
  68 002e 1B68     		ldr	r3, [r3]
  69 0030 DB02     		lsls	r3, r3, #11
ARM GAS  C:\Users\cdrow\AppData\Local\Temp\cczTp1Zf.s 			page 4


  70 0032 09D5     		bpl	.L1
 103:Generated_Source\PSoC4/ADC_1_PM.c ****     {
 104:Generated_Source\PSoC4/ADC_1_PM.c ****         ADC_1_SAR_CTRL_REG &= (uint32)~ADC_1_SAR_CTRL_BOOSTPUMP_EN_MSK;
  71              		.loc 1 104 0
  72 0034 064A     		ldr	r2, .L5+4
  73 0036 1168     		ldr	r1, [r2]
  74 0038 074B     		ldr	r3, .L5+12
  75 003a 0B40     		ands	r3, r1
  76 003c 1360     		str	r3, [r2]
 105:Generated_Source\PSoC4/ADC_1_PM.c ****         ADC_1_backup.enableState |= ADC_1_BOOSTPUMP_ENABLED;
  77              		.loc 1 105 0
  78 003e 034A     		ldr	r2, .L5
  79 0040 1178     		ldrb	r1, [r2]
  80 0042 0423     		movs	r3, #4
  81 0044 0B43     		orrs	r3, r1
  82 0046 1370     		strb	r3, [r2]
  83              	.L1:
 106:Generated_Source\PSoC4/ADC_1_PM.c ****     }
 107:Generated_Source\PSoC4/ADC_1_PM.c **** }
  84              		.loc 1 107 0
  85              		@ sp needed
  86 0048 10BD     		pop	{r4, pc}
  87              	.L6:
  88 004a C046     		.align	2
  89              	.L5:
  90 004c 00000000 		.word	.LANCHOR0
  91 0050 00003A40 		.word	1077542912
  92 0054 04003A40 		.word	1077542916
  93 0058 FFFFEFFF 		.word	-1048577
  94              		.cfi_endproc
  95              	.LFE1:
  96              		.size	ADC_1_Sleep, .-ADC_1_Sleep
  97              		.section	.text.ADC_1_Wakeup,"ax",%progbits
  98              		.align	2
  99              		.global	ADC_1_Wakeup
 100              		.code	16
 101              		.thumb_func
 102              		.type	ADC_1_Wakeup, %function
 103              	ADC_1_Wakeup:
 104              	.LFB2:
 108:Generated_Source\PSoC4/ADC_1_PM.c **** 
 109:Generated_Source\PSoC4/ADC_1_PM.c **** 
 110:Generated_Source\PSoC4/ADC_1_PM.c **** /*******************************************************************************
 111:Generated_Source\PSoC4/ADC_1_PM.c **** * Function Name: ADC_1_Wakeup
 112:Generated_Source\PSoC4/ADC_1_PM.c **** ****************************************************************************//**
 113:Generated_Source\PSoC4/ADC_1_PM.c **** *
 114:Generated_Source\PSoC4/ADC_1_PM.c **** * \brief This is the preferred routine to restore the component to the state when
 115:Generated_Source\PSoC4/ADC_1_PM.c **** * ADC_1_Sleep() was called. The ADC_1_Wakeup() function
 116:Generated_Source\PSoC4/ADC_1_PM.c **** * calls the ADC_1_RestoreConfig() function to restore the
 117:Generated_Source\PSoC4/ADC_1_PM.c **** * configuration. If the component was enabled before the ADC_1_Sleep()
 118:Generated_Source\PSoC4/ADC_1_PM.c **** * function was called, the ADC_1_Wakeup() function also re-enables the
 119:Generated_Source\PSoC4/ADC_1_PM.c **** * component.
 120:Generated_Source\PSoC4/ADC_1_PM.c **** *
 121:Generated_Source\PSoC4/ADC_1_PM.c **** * \param None
 122:Generated_Source\PSoC4/ADC_1_PM.c **** *
 123:Generated_Source\PSoC4/ADC_1_PM.c **** * \return None
 124:Generated_Source\PSoC4/ADC_1_PM.c **** *
ARM GAS  C:\Users\cdrow\AppData\Local\Temp\cczTp1Zf.s 			page 5


 125:Generated_Source\PSoC4/ADC_1_PM.c **** * \sideeffect
 126:Generated_Source\PSoC4/ADC_1_PM.c **** * Calling this function without previously calling ADC_1_Sleep() may lead to
 127:Generated_Source\PSoC4/ADC_1_PM.c **** * unpredictable results.
 128:Generated_Source\PSoC4/ADC_1_PM.c **** *
 129:Generated_Source\PSoC4/ADC_1_PM.c **** * \globalvars
 130:Generated_Source\PSoC4/ADC_1_PM.c **** *  \ref ADC_1_backup (R)
 131:Generated_Source\PSoC4/ADC_1_PM.c **** *
 132:Generated_Source\PSoC4/ADC_1_PM.c **** * \globalvars
 133:Generated_Source\PSoC4/ADC_1_PM.c **** *  \ref ADC_1_backup
 134:Generated_Source\PSoC4/ADC_1_PM.c **** *
 135:Generated_Source\PSoC4/ADC_1_PM.c **** *******************************************************************************/
 136:Generated_Source\PSoC4/ADC_1_PM.c **** void ADC_1_Wakeup(void)
 137:Generated_Source\PSoC4/ADC_1_PM.c **** {
 105              		.loc 1 137 0
 106              		.cfi_startproc
 107              		@ args = 0, pretend = 0, frame = 0
 108              		@ frame_needed = 0, uses_anonymous_args = 0
 109 0000 10B5     		push	{r4, lr}
 110              		.cfi_def_cfa_offset 8
 111              		.cfi_offset 4, -8
 112              		.cfi_offset 14, -4
 138:Generated_Source\PSoC4/ADC_1_PM.c ****     if((ADC_1_backup.enableState & ADC_1_ENABLED) != 0u)
 113              		.loc 1 138 0
 114 0002 0A4B     		ldr	r3, .L10
 115 0004 1B78     		ldrb	r3, [r3]
 116 0006 DA07     		lsls	r2, r3, #31
 117 0008 0FD5     		bpl	.L7
 139:Generated_Source\PSoC4/ADC_1_PM.c ****     {
 140:Generated_Source\PSoC4/ADC_1_PM.c ****         /* Enable the SAR internal pump  */
 141:Generated_Source\PSoC4/ADC_1_PM.c ****         if((ADC_1_backup.enableState & ADC_1_BOOSTPUMP_ENABLED) != 0u)
 118              		.loc 1 141 0
 119 000a 5B07     		lsls	r3, r3, #29
 120 000c 05D5     		bpl	.L9
 142:Generated_Source\PSoC4/ADC_1_PM.c ****         {
 143:Generated_Source\PSoC4/ADC_1_PM.c ****             ADC_1_SAR_CTRL_REG |= ADC_1_SAR_CTRL_BOOSTPUMP_EN_MSK;
 121              		.loc 1 143 0
 122 000e 084A     		ldr	r2, .L10+4
 123 0010 1368     		ldr	r3, [r2]
 124 0012 8021     		movs	r1, #128
 125 0014 4903     		lsls	r1, r1, #13
 126 0016 0B43     		orrs	r3, r1
 127 0018 1360     		str	r3, [r2]
 128              	.L9:
 144:Generated_Source\PSoC4/ADC_1_PM.c ****         }
 145:Generated_Source\PSoC4/ADC_1_PM.c **** 
 146:Generated_Source\PSoC4/ADC_1_PM.c ****         ADC_1_Enable();
 129              		.loc 1 146 0
 130 001a FFF7FEFF 		bl	ADC_1_Enable
 131              	.LVL2:
 147:Generated_Source\PSoC4/ADC_1_PM.c **** 
 148:Generated_Source\PSoC4/ADC_1_PM.c ****         if((ADC_1_backup.enableState & ADC_1_STARTED) != 0u)
 132              		.loc 1 148 0
 133 001e 034B     		ldr	r3, .L10
 134 0020 1B78     		ldrb	r3, [r3]
 135 0022 9B07     		lsls	r3, r3, #30
 136 0024 01D5     		bpl	.L7
 149:Generated_Source\PSoC4/ADC_1_PM.c ****         {
ARM GAS  C:\Users\cdrow\AppData\Local\Temp\cczTp1Zf.s 			page 6


 150:Generated_Source\PSoC4/ADC_1_PM.c ****             ADC_1_StartConvert();
 137              		.loc 1 150 0
 138 0026 FFF7FEFF 		bl	ADC_1_StartConvert
 139              	.LVL3:
 140              	.L7:
 151:Generated_Source\PSoC4/ADC_1_PM.c ****         }
 152:Generated_Source\PSoC4/ADC_1_PM.c ****     }
 153:Generated_Source\PSoC4/ADC_1_PM.c **** }
 141              		.loc 1 153 0
 142              		@ sp needed
 143 002a 10BD     		pop	{r4, pc}
 144              	.L11:
 145              		.align	2
 146              	.L10:
 147 002c 00000000 		.word	.LANCHOR0
 148 0030 00003A40 		.word	1077542912
 149              		.cfi_endproc
 150              	.LFE2:
 151              		.size	ADC_1_Wakeup, .-ADC_1_Wakeup
 152              		.section	.text.ADC_1_SaveConfig,"ax",%progbits
 153              		.align	2
 154              		.global	ADC_1_SaveConfig
 155              		.code	16
 156              		.thumb_func
 157              		.type	ADC_1_SaveConfig, %function
 158              	ADC_1_SaveConfig:
 159              	.LFB3:
 154:Generated_Source\PSoC4/ADC_1_PM.c **** 
 155:Generated_Source\PSoC4/ADC_1_PM.c **** /* ****************************************************************************
 156:Generated_Source\PSoC4/ADC_1_PM.c **** * Function Name: ADC_1_SaveConfig
 157:Generated_Source\PSoC4/ADC_1_PM.c **** ****************************************************************************//*
 158:Generated_Source\PSoC4/ADC_1_PM.c **** *
 159:Generated_Source\PSoC4/ADC_1_PM.c **** * \brief Saves the current configuration of ADC_1 non-retention registers.
 160:Generated_Source\PSoC4/ADC_1_PM.c **** *
 161:Generated_Source\PSoC4/ADC_1_PM.c **** * \param None
 162:Generated_Source\PSoC4/ADC_1_PM.c **** *
 163:Generated_Source\PSoC4/ADC_1_PM.c **** * \return None
 164:Generated_Source\PSoC4/ADC_1_PM.c **** *
 165:Generated_Source\PSoC4/ADC_1_PM.c **** * \sideeffect None
 166:Generated_Source\PSoC4/ADC_1_PM.c **** *
 167:Generated_Source\PSoC4/ADC_1_PM.c **** *******************************************************************************/
 168:Generated_Source\PSoC4/ADC_1_PM.c **** void ADC_1_SaveConfig(void)
 169:Generated_Source\PSoC4/ADC_1_PM.c **** {
 160              		.loc 1 169 0
 161              		.cfi_startproc
 162              		@ args = 0, pretend = 0, frame = 0
 163              		@ frame_needed = 0, uses_anonymous_args = 0
 164              		@ link register save eliminated.
 170:Generated_Source\PSoC4/ADC_1_PM.c ****      /* All configuration registers are marked as [reset_all_retention] */
 171:Generated_Source\PSoC4/ADC_1_PM.c **** }
 165              		.loc 1 171 0
 166              		@ sp needed
 167 0000 7047     		bx	lr
 168              		.cfi_endproc
 169              	.LFE3:
 170              		.size	ADC_1_SaveConfig, .-ADC_1_SaveConfig
 171 0002 C046     		.section	.text.ADC_1_RestoreConfig,"ax",%progbits
ARM GAS  C:\Users\cdrow\AppData\Local\Temp\cczTp1Zf.s 			page 7


 172              		.align	2
 173              		.global	ADC_1_RestoreConfig
 174              		.code	16
 175              		.thumb_func
 176              		.type	ADC_1_RestoreConfig, %function
 177              	ADC_1_RestoreConfig:
 178              	.LFB4:
 172:Generated_Source\PSoC4/ADC_1_PM.c **** 
 173:Generated_Source\PSoC4/ADC_1_PM.c **** /* ****************************************************************************
 174:Generated_Source\PSoC4/ADC_1_PM.c **** * Function Name: ADC_1_RestoreConfig
 175:Generated_Source\PSoC4/ADC_1_PM.c **** ****************************************************************************//*
 176:Generated_Source\PSoC4/ADC_1_PM.c **** *
 177:Generated_Source\PSoC4/ADC_1_PM.c **** * \brief Restores the configuration of ADC_1 non-retention registers.
 178:Generated_Source\PSoC4/ADC_1_PM.c **** *
 179:Generated_Source\PSoC4/ADC_1_PM.c **** * \param None
 180:Generated_Source\PSoC4/ADC_1_PM.c **** *
 181:Generated_Source\PSoC4/ADC_1_PM.c **** * \return None
 182:Generated_Source\PSoC4/ADC_1_PM.c **** *
 183:Generated_Source\PSoC4/ADC_1_PM.c **** * \sideeffect Calling this function without previously calling
 184:Generated_Source\PSoC4/ADC_1_PM.c **** * ADC_1_SaveConfig() or ADC_1_Sleep will lead to
 185:Generated_Source\PSoC4/ADC_1_PM.c **** * unpredictable results.
 186:Generated_Source\PSoC4/ADC_1_PM.c **** *
 187:Generated_Source\PSoC4/ADC_1_PM.c **** *******************************************************************************/
 188:Generated_Source\PSoC4/ADC_1_PM.c **** void ADC_1_RestoreConfig(void)
 189:Generated_Source\PSoC4/ADC_1_PM.c **** {
 179              		.loc 1 189 0
 180              		.cfi_startproc
 181              		@ args = 0, pretend = 0, frame = 0
 182              		@ frame_needed = 0, uses_anonymous_args = 0
 183              		@ link register save eliminated.
 190:Generated_Source\PSoC4/ADC_1_PM.c ****     /* All configuration registers are marked as [reset_all_retention] */
 191:Generated_Source\PSoC4/ADC_1_PM.c **** }
 184              		.loc 1 191 0
 185              		@ sp needed
 186 0000 7047     		bx	lr
 187              		.cfi_endproc
 188              	.LFE4:
 189              		.size	ADC_1_RestoreConfig, .-ADC_1_RestoreConfig
 190 0002 C046     		.bss
 191              		.align	2
 192              		.set	.LANCHOR0,. + 0
 193              		.type	ADC_1_backup, %object
 194              		.size	ADC_1_backup, 1
 195              	ADC_1_backup:
 196 0000 00       		.space	1
 197              		.text
 198              	.Letext0:
 199              		.file 2 "Generated_Source\\PSoC4\\cytypes.h"
 200              		.file 3 "Generated_Source\\PSoC4\\ADC_1.h"