ARM GAS  C:\Users\Crowling\AppData\Local\Temp\ccBFOglO.s 			page 1


   1              		.syntax unified
   2              		.cpu cortex-m0plus
   3              		.fpu softvfp
   4              		.eabi_attribute 20, 1
   5              		.eabi_attribute 21, 1
   6              		.eabi_attribute 23, 3
   7              		.eabi_attribute 24, 1
   8              		.eabi_attribute 25, 1
   9              		.eabi_attribute 26, 1
  10              		.eabi_attribute 30, 1
  11              		.eabi_attribute 34, 0
  12              		.eabi_attribute 18, 4
  13              		.thumb
  14              		.syntax unified
  15              		.file	"cyfitter_cfg.c"
  16              		.text
  17              	.Ltext0:
  18              		.cfi_sections	.debug_frame
  19              		.section	.psocinit,"ax",%progbits
  20              		.align	2
  21              		.code	16
  22              		.thumb_func
  23              		.type	ClockSetup, %function
  24              	ClockSetup:
  25              	.LFB4:
  26              		.file 1 "Generated_Source\\PSoC4\\cyfitter_cfg.c"
   1:Generated_Source\PSoC4/cyfitter_cfg.c **** 
   2:Generated_Source\PSoC4/cyfitter_cfg.c **** /*******************************************************************************
   3:Generated_Source\PSoC4/cyfitter_cfg.c **** * File Name: cyfitter_cfg.c
   4:Generated_Source\PSoC4/cyfitter_cfg.c **** * 
   5:Generated_Source\PSoC4/cyfitter_cfg.c **** * PSoC Creator  4.4
   6:Generated_Source\PSoC4/cyfitter_cfg.c **** *
   7:Generated_Source\PSoC4/cyfitter_cfg.c **** * Description:
   8:Generated_Source\PSoC4/cyfitter_cfg.c **** * This file contains device initialization code.
   9:Generated_Source\PSoC4/cyfitter_cfg.c **** * Except for the user defined sections in CyClockStartupError(), this file should not be modified.
  10:Generated_Source\PSoC4/cyfitter_cfg.c **** * This file is automatically generated by PSoC Creator.
  11:Generated_Source\PSoC4/cyfitter_cfg.c **** *
  12:Generated_Source\PSoC4/cyfitter_cfg.c **** ********************************************************************************
  13:Generated_Source\PSoC4/cyfitter_cfg.c **** * Copyright (c) 2007-2020 Cypress Semiconductor.  All rights reserved.
  14:Generated_Source\PSoC4/cyfitter_cfg.c **** * You may use this file only in accordance with the license, terms, conditions, 
  15:Generated_Source\PSoC4/cyfitter_cfg.c **** * disclaimers, and limitations in the end user license agreement accompanying 
  16:Generated_Source\PSoC4/cyfitter_cfg.c **** * the software package with which this file was provided.
  17:Generated_Source\PSoC4/cyfitter_cfg.c **** ********************************************************************************/
  18:Generated_Source\PSoC4/cyfitter_cfg.c **** 
  19:Generated_Source\PSoC4/cyfitter_cfg.c **** #include <string.h>
  20:Generated_Source\PSoC4/cyfitter_cfg.c **** #include "cytypes.h"
  21:Generated_Source\PSoC4/cyfitter_cfg.c **** #include "cydevice_trm.h"
  22:Generated_Source\PSoC4/cyfitter_cfg.c **** #include "cyfitter.h"
  23:Generated_Source\PSoC4/cyfitter_cfg.c **** #include "CyLib.h"
  24:Generated_Source\PSoC4/cyfitter_cfg.c **** #include "CyLFClk.h"
  25:Generated_Source\PSoC4/cyfitter_cfg.c **** #include "cyfitter_cfg.h"
  26:Generated_Source\PSoC4/cyfitter_cfg.c **** #include "cyapicallbacks.h"
  27:Generated_Source\PSoC4/cyfitter_cfg.c **** 
  28:Generated_Source\PSoC4/cyfitter_cfg.c **** 
  29:Generated_Source\PSoC4/cyfitter_cfg.c **** #if defined(__GNUC__) || defined(__ARMCC_VERSION)
  30:Generated_Source\PSoC4/cyfitter_cfg.c ****     #define CYPACKED 
  31:Generated_Source\PSoC4/cyfitter_cfg.c ****     #define CYPACKED_ATTR __attribute__ ((packed))
ARM GAS  C:\Users\Crowling\AppData\Local\Temp\ccBFOglO.s 			page 2


  32:Generated_Source\PSoC4/cyfitter_cfg.c ****     #define CYALIGNED __attribute__ ((aligned))
  33:Generated_Source\PSoC4/cyfitter_cfg.c ****     #define CY_CFG_UNUSED __attribute__ ((unused))
  34:Generated_Source\PSoC4/cyfitter_cfg.c ****     #ifndef CY_CFG_SECTION
  35:Generated_Source\PSoC4/cyfitter_cfg.c ****         #define CY_CFG_SECTION __attribute__ ((section(".psocinit")))
  36:Generated_Source\PSoC4/cyfitter_cfg.c ****     #endif
  37:Generated_Source\PSoC4/cyfitter_cfg.c ****     
  38:Generated_Source\PSoC4/cyfitter_cfg.c ****     #if defined(__ARMCC_VERSION)
  39:Generated_Source\PSoC4/cyfitter_cfg.c ****         #define CY_CFG_MEMORY_BARRIER() __memory_changed()
  40:Generated_Source\PSoC4/cyfitter_cfg.c ****     #else
  41:Generated_Source\PSoC4/cyfitter_cfg.c ****         #define CY_CFG_MEMORY_BARRIER() __sync_synchronize()
  42:Generated_Source\PSoC4/cyfitter_cfg.c ****     #endif
  43:Generated_Source\PSoC4/cyfitter_cfg.c ****     
  44:Generated_Source\PSoC4/cyfitter_cfg.c **** #elif defined(__ICCARM__)
  45:Generated_Source\PSoC4/cyfitter_cfg.c ****     #include <intrinsics.h>
  46:Generated_Source\PSoC4/cyfitter_cfg.c **** 
  47:Generated_Source\PSoC4/cyfitter_cfg.c ****     #define CYPACKED __packed
  48:Generated_Source\PSoC4/cyfitter_cfg.c ****     #define CYPACKED_ATTR 
  49:Generated_Source\PSoC4/cyfitter_cfg.c ****     #define CYALIGNED _Pragma("data_alignment=4")
  50:Generated_Source\PSoC4/cyfitter_cfg.c ****     #define CY_CFG_UNUSED _Pragma("diag_suppress=Pe177")
  51:Generated_Source\PSoC4/cyfitter_cfg.c ****     #define CY_CFG_SECTION _Pragma("location=\".psocinit\"")
  52:Generated_Source\PSoC4/cyfitter_cfg.c ****     
  53:Generated_Source\PSoC4/cyfitter_cfg.c ****     #define CY_CFG_MEMORY_BARRIER() __DMB()
  54:Generated_Source\PSoC4/cyfitter_cfg.c ****     
  55:Generated_Source\PSoC4/cyfitter_cfg.c **** #else
  56:Generated_Source\PSoC4/cyfitter_cfg.c ****     #error Unsupported toolchain
  57:Generated_Source\PSoC4/cyfitter_cfg.c **** #endif
  58:Generated_Source\PSoC4/cyfitter_cfg.c **** 
  59:Generated_Source\PSoC4/cyfitter_cfg.c **** #ifndef CYCODE
  60:Generated_Source\PSoC4/cyfitter_cfg.c ****     #define CYCODE
  61:Generated_Source\PSoC4/cyfitter_cfg.c **** #endif
  62:Generated_Source\PSoC4/cyfitter_cfg.c **** #ifndef CYDATA
  63:Generated_Source\PSoC4/cyfitter_cfg.c ****     #define CYDATA
  64:Generated_Source\PSoC4/cyfitter_cfg.c **** #endif
  65:Generated_Source\PSoC4/cyfitter_cfg.c **** #ifndef CYFAR
  66:Generated_Source\PSoC4/cyfitter_cfg.c ****     #define CYFAR
  67:Generated_Source\PSoC4/cyfitter_cfg.c **** #endif
  68:Generated_Source\PSoC4/cyfitter_cfg.c **** #ifndef CYXDATA
  69:Generated_Source\PSoC4/cyfitter_cfg.c ****     #define CYXDATA
  70:Generated_Source\PSoC4/cyfitter_cfg.c **** #endif
  71:Generated_Source\PSoC4/cyfitter_cfg.c **** 
  72:Generated_Source\PSoC4/cyfitter_cfg.c **** 
  73:Generated_Source\PSoC4/cyfitter_cfg.c **** CY_CFG_UNUSED
  74:Generated_Source\PSoC4/cyfitter_cfg.c **** static void CYMEMZERO(void *s, size_t n);
  75:Generated_Source\PSoC4/cyfitter_cfg.c **** CY_CFG_UNUSED
  76:Generated_Source\PSoC4/cyfitter_cfg.c **** static void CYMEMZERO(void *s, size_t n)
  77:Generated_Source\PSoC4/cyfitter_cfg.c **** {
  78:Generated_Source\PSoC4/cyfitter_cfg.c **** 	(void)memset(s, 0, n);
  79:Generated_Source\PSoC4/cyfitter_cfg.c **** }
  80:Generated_Source\PSoC4/cyfitter_cfg.c **** CY_CFG_UNUSED
  81:Generated_Source\PSoC4/cyfitter_cfg.c **** static void CYCONFIGCPY(void *dest, const void *src, size_t n);
  82:Generated_Source\PSoC4/cyfitter_cfg.c **** CY_CFG_UNUSED
  83:Generated_Source\PSoC4/cyfitter_cfg.c **** static void CYCONFIGCPY(void *dest, const void *src, size_t n)
  84:Generated_Source\PSoC4/cyfitter_cfg.c **** {
  85:Generated_Source\PSoC4/cyfitter_cfg.c **** 	(void)memcpy(dest, src, n);
  86:Generated_Source\PSoC4/cyfitter_cfg.c **** }
  87:Generated_Source\PSoC4/cyfitter_cfg.c **** CY_CFG_UNUSED
  88:Generated_Source\PSoC4/cyfitter_cfg.c **** static void CYCONFIGCPYCODE(void *dest, const void *src, size_t n);
ARM GAS  C:\Users\Crowling\AppData\Local\Temp\ccBFOglO.s 			page 3


  89:Generated_Source\PSoC4/cyfitter_cfg.c **** CY_CFG_UNUSED
  90:Generated_Source\PSoC4/cyfitter_cfg.c **** static void CYCONFIGCPYCODE(void *dest, const void *src, size_t n)
  91:Generated_Source\PSoC4/cyfitter_cfg.c **** {
  92:Generated_Source\PSoC4/cyfitter_cfg.c **** 	(void)memcpy(dest, src, n);
  93:Generated_Source\PSoC4/cyfitter_cfg.c **** }
  94:Generated_Source\PSoC4/cyfitter_cfg.c **** 
  95:Generated_Source\PSoC4/cyfitter_cfg.c **** 
  96:Generated_Source\PSoC4/cyfitter_cfg.c **** 
  97:Generated_Source\PSoC4/cyfitter_cfg.c **** 
  98:Generated_Source\PSoC4/cyfitter_cfg.c **** /* Clock startup error codes                                                   */
  99:Generated_Source\PSoC4/cyfitter_cfg.c **** #define CYCLOCKSTART_NO_ERROR    0u
 100:Generated_Source\PSoC4/cyfitter_cfg.c **** #define CYCLOCKSTART_XTAL_ERROR  1u
 101:Generated_Source\PSoC4/cyfitter_cfg.c **** #define CYCLOCKSTART_32KHZ_ERROR 2u
 102:Generated_Source\PSoC4/cyfitter_cfg.c **** #define CYCLOCKSTART_PLL_ERROR   3u
 103:Generated_Source\PSoC4/cyfitter_cfg.c **** #define CYCLOCKSTART_FLL_ERROR   4u
 104:Generated_Source\PSoC4/cyfitter_cfg.c **** #define CYCLOCKSTART_WCO_ERROR   5u
 105:Generated_Source\PSoC4/cyfitter_cfg.c **** 
 106:Generated_Source\PSoC4/cyfitter_cfg.c **** 
 107:Generated_Source\PSoC4/cyfitter_cfg.c **** #ifdef CY_NEED_CYCLOCKSTARTUPERROR
 108:Generated_Source\PSoC4/cyfitter_cfg.c **** /*******************************************************************************
 109:Generated_Source\PSoC4/cyfitter_cfg.c **** * Function Name: CyClockStartupError
 110:Generated_Source\PSoC4/cyfitter_cfg.c **** ********************************************************************************
 111:Generated_Source\PSoC4/cyfitter_cfg.c **** * Summary:
 112:Generated_Source\PSoC4/cyfitter_cfg.c **** *  If an error is encountered during clock configuration (crystal startup error,
 113:Generated_Source\PSoC4/cyfitter_cfg.c **** *  PLL lock error, etc.), the system will end up here.  Unless reimplemented by
 114:Generated_Source\PSoC4/cyfitter_cfg.c **** *  the customer, this function will stop in an infinite loop.
 115:Generated_Source\PSoC4/cyfitter_cfg.c **** *
 116:Generated_Source\PSoC4/cyfitter_cfg.c **** * Parameters:
 117:Generated_Source\PSoC4/cyfitter_cfg.c **** *   void
 118:Generated_Source\PSoC4/cyfitter_cfg.c **** *
 119:Generated_Source\PSoC4/cyfitter_cfg.c **** * Return:
 120:Generated_Source\PSoC4/cyfitter_cfg.c **** *   void
 121:Generated_Source\PSoC4/cyfitter_cfg.c **** *
 122:Generated_Source\PSoC4/cyfitter_cfg.c **** *******************************************************************************/
 123:Generated_Source\PSoC4/cyfitter_cfg.c **** CY_CFG_UNUSED
 124:Generated_Source\PSoC4/cyfitter_cfg.c **** static void CyClockStartupError(uint8 errorCode);
 125:Generated_Source\PSoC4/cyfitter_cfg.c **** CY_CFG_UNUSED
 126:Generated_Source\PSoC4/cyfitter_cfg.c **** static void CyClockStartupError(uint8 errorCode)
 127:Generated_Source\PSoC4/cyfitter_cfg.c **** {
 128:Generated_Source\PSoC4/cyfitter_cfg.c ****     /* To remove the compiler warning if errorCode not used.                */
 129:Generated_Source\PSoC4/cyfitter_cfg.c ****     errorCode = errorCode;
 130:Generated_Source\PSoC4/cyfitter_cfg.c **** 
 131:Generated_Source\PSoC4/cyfitter_cfg.c ****     /* If we have a clock startup error (bad MHz crystal, PLL lock, etc.),  */
 132:Generated_Source\PSoC4/cyfitter_cfg.c ****     /* we will end up here to allow the customer to implement something to  */
 133:Generated_Source\PSoC4/cyfitter_cfg.c ****     /* deal with the clock condition.                                       */
 134:Generated_Source\PSoC4/cyfitter_cfg.c **** 
 135:Generated_Source\PSoC4/cyfitter_cfg.c **** #ifdef CY_CFG_CLOCK_STARTUP_ERROR_CALLBACK
 136:Generated_Source\PSoC4/cyfitter_cfg.c ****     CY_CFG_Clock_Startup_ErrorCallback();
 137:Generated_Source\PSoC4/cyfitter_cfg.c **** #else
 138:Generated_Source\PSoC4/cyfitter_cfg.c ****     /*  If not using CY_CFG_CLOCK_STARTUP_ERROR_CALLBACK, place your clock startup code here. */
 139:Generated_Source\PSoC4/cyfitter_cfg.c ****     /* `#START CyClockStartupError` */
 140:Generated_Source\PSoC4/cyfitter_cfg.c **** 
 141:Generated_Source\PSoC4/cyfitter_cfg.c **** 
 142:Generated_Source\PSoC4/cyfitter_cfg.c **** 
 143:Generated_Source\PSoC4/cyfitter_cfg.c ****     /* `#END` */
 144:Generated_Source\PSoC4/cyfitter_cfg.c **** 
 145:Generated_Source\PSoC4/cyfitter_cfg.c ****     while(1) {}
ARM GAS  C:\Users\Crowling\AppData\Local\Temp\ccBFOglO.s 			page 4


 146:Generated_Source\PSoC4/cyfitter_cfg.c **** #endif /* CY_CFG_CLOCK_STARTUP_ERROR_CALLBACK */
 147:Generated_Source\PSoC4/cyfitter_cfg.c **** }
 148:Generated_Source\PSoC4/cyfitter_cfg.c **** #endif
 149:Generated_Source\PSoC4/cyfitter_cfg.c **** 
 150:Generated_Source\PSoC4/cyfitter_cfg.c **** 
 151:Generated_Source\PSoC4/cyfitter_cfg.c **** 
 152:Generated_Source\PSoC4/cyfitter_cfg.c **** /*******************************************************************************
 153:Generated_Source\PSoC4/cyfitter_cfg.c **** * Function Name: ClockSetup
 154:Generated_Source\PSoC4/cyfitter_cfg.c **** ********************************************************************************
 155:Generated_Source\PSoC4/cyfitter_cfg.c **** *
 156:Generated_Source\PSoC4/cyfitter_cfg.c **** * Summary:
 157:Generated_Source\PSoC4/cyfitter_cfg.c **** *   Performs the initialization of all of the clocks in the device based on the
 158:Generated_Source\PSoC4/cyfitter_cfg.c **** *   settings in the Clock tab of the DWR.  This includes enabling the requested
 159:Generated_Source\PSoC4/cyfitter_cfg.c **** *   clocks and setting the necessary dividers to produce the desired frequency. 
 160:Generated_Source\PSoC4/cyfitter_cfg.c **** *
 161:Generated_Source\PSoC4/cyfitter_cfg.c **** * Parameters:
 162:Generated_Source\PSoC4/cyfitter_cfg.c **** *   void
 163:Generated_Source\PSoC4/cyfitter_cfg.c **** *
 164:Generated_Source\PSoC4/cyfitter_cfg.c **** * Return:
 165:Generated_Source\PSoC4/cyfitter_cfg.c **** *   void
 166:Generated_Source\PSoC4/cyfitter_cfg.c **** *
 167:Generated_Source\PSoC4/cyfitter_cfg.c **** *******************************************************************************/
 168:Generated_Source\PSoC4/cyfitter_cfg.c **** static void ClockSetup(void);
 169:Generated_Source\PSoC4/cyfitter_cfg.c **** CY_CFG_SECTION
 170:Generated_Source\PSoC4/cyfitter_cfg.c **** static void ClockSetup(void)
 171:Generated_Source\PSoC4/cyfitter_cfg.c **** {
  27              		.loc 1 171 0
  28              		.cfi_startproc
  29              		@ args = 0, pretend = 0, frame = 0
  30              		@ frame_needed = 0, uses_anonymous_args = 0
  31 0000 10B5     		push	{r4, lr}
  32              		.cfi_def_cfa_offset 8
  33              		.cfi_offset 4, -8
  34              		.cfi_offset 14, -4
 172:Generated_Source\PSoC4/cyfitter_cfg.c **** 
 173:Generated_Source\PSoC4/cyfitter_cfg.c **** 	/* Set Flash Cycles based on max possible frequency in case a glitch occurs during ClockSetup(). *
 174:Generated_Source\PSoC4/cyfitter_cfg.c **** 	CY_SET_REG32((void CYXDATA *)(CYREG_CPUSS_FLASH_CTL), (0x0012u));
  35              		.loc 1 174 0
  36 0002 214C     		ldr	r4, .L2
  37 0004 1223     		movs	r3, #18
  38 0006 2360     		str	r3, [r4]
 175:Generated_Source\PSoC4/cyfitter_cfg.c **** 	/* Update IMO to new clock speed. */
 176:Generated_Source\PSoC4/cyfitter_cfg.c **** 	CySysClkWriteImoFreq(24u);
  39              		.loc 1 176 0
  40 0008 1820     		movs	r0, #24
  41 000a FFF7FEFF 		bl	CySysClkWriteImoFreq
  42              	.LVL0:
 177:Generated_Source\PSoC4/cyfitter_cfg.c **** 
 178:Generated_Source\PSoC4/cyfitter_cfg.c **** 	/* Setup phase aligned clocks */
 179:Generated_Source\PSoC4/cyfitter_cfg.c **** 	CY_SET_REG32((void *)CYREG_PERI_DIV_16_CTL0, 0x00000100u);
  43              		.loc 1 179 0
  44 000e 8022     		movs	r2, #128
  45 0010 5200     		lsls	r2, r2, #1
  46 0012 1E4B     		ldr	r3, .L2+4
  47 0014 1A60     		str	r2, [r3]
 180:Generated_Source\PSoC4/cyfitter_cfg.c **** 	CY_SET_REG32((void *)CYREG_PERI_DIV_CMD, 0x8000FF40u);
  48              		.loc 1 180 0
ARM GAS  C:\Users\Crowling\AppData\Local\Temp\ccBFOglO.s 			page 5


  49 0016 8023     		movs	r3, #128
  50 0018 DB05     		lsls	r3, r3, #23
  51 001a 1D49     		ldr	r1, .L2+8
  52 001c 1960     		str	r1, [r3]
 181:Generated_Source\PSoC4/cyfitter_cfg.c **** 	CY_SET_REG32((void *)CYREG_PERI_DIV_16_CTL1, 0x00000100u);
  53              		.loc 1 181 0
  54 001e 1D49     		ldr	r1, .L2+12
  55 0020 0A60     		str	r2, [r1]
 182:Generated_Source\PSoC4/cyfitter_cfg.c **** 	CY_SET_REG32((void *)CYREG_PERI_DIV_CMD, 0x8000FF41u);
  56              		.loc 1 182 0
  57 0022 1D4A     		ldr	r2, .L2+16
  58 0024 1A60     		str	r2, [r3]
 183:Generated_Source\PSoC4/cyfitter_cfg.c **** 	CY_SET_REG32((void *)CYREG_PERI_DIV_24_5_CTL, 0x02DC6B00u);
  59              		.loc 1 183 0
  60 0026 1D49     		ldr	r1, .L2+20
  61 0028 1D4A     		ldr	r2, .L2+24
  62 002a 1160     		str	r1, [r2]
 184:Generated_Source\PSoC4/cyfitter_cfg.c **** 	CY_SET_REG32((void *)CYREG_PERI_DIV_CMD, 0x8000FFC0u);
  63              		.loc 1 184 0
  64 002c 1D4A     		ldr	r2, .L2+28
  65 002e 1A60     		str	r2, [r3]
 185:Generated_Source\PSoC4/cyfitter_cfg.c **** 	CY_SET_REG32((void *)CYREG_PERI_DIV_16_CTL3, 0x00001000u);
  66              		.loc 1 185 0
  67 0030 8021     		movs	r1, #128
  68 0032 4901     		lsls	r1, r1, #5
  69 0034 1C4A     		ldr	r2, .L2+32
  70 0036 1160     		str	r1, [r2]
 186:Generated_Source\PSoC4/cyfitter_cfg.c **** 	CY_SET_REG32((void *)CYREG_PERI_DIV_CMD, 0x8000FF43u);
  71              		.loc 1 186 0
  72 0038 1C4A     		ldr	r2, .L2+36
  73 003a 1A60     		str	r2, [r3]
 187:Generated_Source\PSoC4/cyfitter_cfg.c **** 	CY_SET_REG32((void *)CYREG_PERI_DIV_16_CTL2, 0x00000E00u);
  74              		.loc 1 187 0
  75 003c E021     		movs	r1, #224
  76 003e 0901     		lsls	r1, r1, #4
  77 0040 1B4A     		ldr	r2, .L2+40
  78 0042 1160     		str	r1, [r2]
 188:Generated_Source\PSoC4/cyfitter_cfg.c **** 	CY_SET_REG32((void *)CYREG_PERI_DIV_CMD, 0x8000FF42u);
  79              		.loc 1 188 0
  80 0044 1B4A     		ldr	r2, .L2+44
  81 0046 1A60     		str	r2, [r3]
 189:Generated_Source\PSoC4/cyfitter_cfg.c **** 
 190:Generated_Source\PSoC4/cyfitter_cfg.c **** 	/* CYDEV_CLK_SELECT Starting address: CYDEV_CLK_SELECT */
 191:Generated_Source\PSoC4/cyfitter_cfg.c **** 	CY_SET_REG32((void *)(CYREG_CLK_SELECT), 0x00000020u);
  82              		.loc 1 191 0
  83 0048 2022     		movs	r2, #32
  84 004a 1B4B     		ldr	r3, .L2+48
  85 004c 1A60     		str	r2, [r3]
 192:Generated_Source\PSoC4/cyfitter_cfg.c **** 
 193:Generated_Source\PSoC4/cyfitter_cfg.c **** 	/* CYDEV_PERI_PCLK_CTL12 Starting address: CYDEV_PERI_PCLK_CTL12 */
 194:Generated_Source\PSoC4/cyfitter_cfg.c **** 	CY_SET_REG32((void *)(CYREG_PERI_PCLK_CTL12), 0x00000041u);
  86              		.loc 1 194 0
  87 004e 2132     		adds	r2, r2, #33
  88 0050 1A4B     		ldr	r3, .L2+52
  89 0052 1A60     		str	r2, [r3]
 195:Generated_Source\PSoC4/cyfitter_cfg.c **** 
 196:Generated_Source\PSoC4/cyfitter_cfg.c **** 	/* CYDEV_PERI_PCLK_CTL4 Starting address: CYDEV_PERI_PCLK_CTL4 */
ARM GAS  C:\Users\Crowling\AppData\Local\Temp\ccBFOglO.s 			page 6


 197:Generated_Source\PSoC4/cyfitter_cfg.c **** 	CY_SET_REG32((void *)(CYREG_PERI_PCLK_CTL4), 0x000000C0u);
  90              		.loc 1 197 0
  91 0054 7F32     		adds	r2, r2, #127
  92 0056 1A4B     		ldr	r3, .L2+56
  93 0058 1A60     		str	r2, [r3]
 198:Generated_Source\PSoC4/cyfitter_cfg.c **** 
 199:Generated_Source\PSoC4/cyfitter_cfg.c **** 	/* CYDEV_PERI_PCLK_CTL1 Starting address: CYDEV_PERI_PCLK_CTL1 */
 200:Generated_Source\PSoC4/cyfitter_cfg.c **** 	CY_SET_REG32((void *)(CYREG_PERI_PCLK_CTL1), 0x00000043u);
  94              		.loc 1 200 0
  95 005a 7D3A     		subs	r2, r2, #125
  96 005c 194B     		ldr	r3, .L2+60
  97 005e 1A60     		str	r2, [r3]
 201:Generated_Source\PSoC4/cyfitter_cfg.c **** 
 202:Generated_Source\PSoC4/cyfitter_cfg.c **** 	/* CYDEV_PERI_PCLK_CTL0 Starting address: CYDEV_PERI_PCLK_CTL0 */
 203:Generated_Source\PSoC4/cyfitter_cfg.c **** 	CY_SET_REG32((void *)(CYREG_PERI_PCLK_CTL0), 0x00000042u);
  98              		.loc 1 203 0
  99 0060 013A     		subs	r2, r2, #1
 100 0062 194B     		ldr	r3, .L2+64
 101 0064 1A60     		str	r2, [r3]
 204:Generated_Source\PSoC4/cyfitter_cfg.c **** 
 205:Generated_Source\PSoC4/cyfitter_cfg.c **** 	(void)CyIntSetVector(11u, &CySysTimerIsr);
 102              		.loc 1 205 0
 103 0066 1949     		ldr	r1, .L2+68
 104 0068 0B20     		movs	r0, #11
 105 006a FFF7FEFF 		bl	CyIntSetVector
 106              	.LVL1:
 206:Generated_Source\PSoC4/cyfitter_cfg.c **** 	CyIntEnable(11u);
 107              		.loc 1 206 0
 108 006e 0B20     		movs	r0, #11
 109 0070 FFF7FEFF 		bl	CyIntEnable
 110              	.LVL2:
 207:Generated_Source\PSoC4/cyfitter_cfg.c **** 	CY_SET_REG32((void *)(CYREG_WCO_WDT_CONFIG), 0x00000000u);
 111              		.loc 1 207 0
 112 0074 0022     		movs	r2, #0
 113 0076 164B     		ldr	r3, .L2+72
 114 0078 1A60     		str	r2, [r3]
 208:Generated_Source\PSoC4/cyfitter_cfg.c **** 	CySysClkSetTimerSource(CY_SYS_CLK_TIMER_SRC_ILO);
 115              		.loc 1 208 0
 116 007a 0020     		movs	r0, #0
 117 007c FFF7FEFF 		bl	CySysClkSetTimerSource
 118              	.LVL3:
 209:Generated_Source\PSoC4/cyfitter_cfg.c **** 	/* Set Flash Cycles based on newly configured 24.00MHz HFCLK. */
 210:Generated_Source\PSoC4/cyfitter_cfg.c **** 	CY_SET_REG32((void CYXDATA *)(CYREG_CPUSS_FLASH_CTL), (0x0011u));
 119              		.loc 1 210 0
 120 0080 1123     		movs	r3, #17
 121 0082 2360     		str	r3, [r4]
 211:Generated_Source\PSoC4/cyfitter_cfg.c **** }
 122              		.loc 1 211 0
 123              		@ sp needed
 124 0084 10BD     		pop	{r4, pc}
 125              	.L3:
 126 0086 C046     		.align	2
 127              	.L2:
 128 0088 30001040 		.word	1074790448
 129 008c 00030040 		.word	1073742592
 130 0090 40FF0080 		.word	-2147418304
 131 0094 04030040 		.word	1073742596
ARM GAS  C:\Users\Crowling\AppData\Local\Temp\ccBFOglO.s 			page 7


 132 0098 41FF0080 		.word	-2147418303
 133 009c 006BDC02 		.word	47999744
 134 00a0 00050040 		.word	1073743104
 135 00a4 C0FF0080 		.word	-2147418176
 136 00a8 0C030040 		.word	1073742604
 137 00ac 43FF0080 		.word	-2147418301
 138 00b0 08030040 		.word	1073742600
 139 00b4 42FF0080 		.word	-2147418302
 140 00b8 28000340 		.word	1073938472
 141 00bc 30010040 		.word	1073742128
 142 00c0 10010040 		.word	1073742096
 143 00c4 04010040 		.word	1073742084
 144 00c8 00010040 		.word	1073742080
 145 00cc 00000000 		.word	CySysTimerIsr
 146 00d0 0C020640 		.word	1074135564
 147              		.cfi_endproc
 148              	.LFE4:
 149              		.size	ClockSetup, .-ClockSetup
 150              		.section	.text.SetAnalogRoutingPumps,"ax",%progbits
 151              		.align	2
 152              		.global	SetAnalogRoutingPumps
 153              		.code	16
 154              		.thumb_func
 155              		.type	SetAnalogRoutingPumps, %function
 156              	SetAnalogRoutingPumps:
 157              	.LFB6:
 212:Generated_Source\PSoC4/cyfitter_cfg.c **** 
 213:Generated_Source\PSoC4/cyfitter_cfg.c **** 
 214:Generated_Source\PSoC4/cyfitter_cfg.c **** /* Analog API Functions */
 215:Generated_Source\PSoC4/cyfitter_cfg.c **** 
 216:Generated_Source\PSoC4/cyfitter_cfg.c **** 
 217:Generated_Source\PSoC4/cyfitter_cfg.c **** /*******************************************************************************
 218:Generated_Source\PSoC4/cyfitter_cfg.c **** * Function Name: AnalogSetDefault
 219:Generated_Source\PSoC4/cyfitter_cfg.c **** ********************************************************************************
 220:Generated_Source\PSoC4/cyfitter_cfg.c **** *
 221:Generated_Source\PSoC4/cyfitter_cfg.c **** * Summary:
 222:Generated_Source\PSoC4/cyfitter_cfg.c **** *  Sets up the analog portions of the chip to default values based on chip
 223:Generated_Source\PSoC4/cyfitter_cfg.c **** *  configuration options from the project.
 224:Generated_Source\PSoC4/cyfitter_cfg.c **** *
 225:Generated_Source\PSoC4/cyfitter_cfg.c **** * Parameters:
 226:Generated_Source\PSoC4/cyfitter_cfg.c **** *  void
 227:Generated_Source\PSoC4/cyfitter_cfg.c **** *
 228:Generated_Source\PSoC4/cyfitter_cfg.c **** * Return:
 229:Generated_Source\PSoC4/cyfitter_cfg.c **** *  void
 230:Generated_Source\PSoC4/cyfitter_cfg.c **** *
 231:Generated_Source\PSoC4/cyfitter_cfg.c **** *******************************************************************************/
 232:Generated_Source\PSoC4/cyfitter_cfg.c **** static void AnalogSetDefault(void);
 233:Generated_Source\PSoC4/cyfitter_cfg.c **** static void AnalogSetDefault(void)
 234:Generated_Source\PSoC4/cyfitter_cfg.c **** {
 235:Generated_Source\PSoC4/cyfitter_cfg.c **** 	CY_SET_XTND_REG32((void CYFAR *)CYREG_CTB0_CTB_CTRL, 0x80000000u);
 236:Generated_Source\PSoC4/cyfitter_cfg.c **** 	CY_SET_XTND_REG32((void CYFAR *)CYREG_CTB0_OA0_SW, 0x01080080u);
 237:Generated_Source\PSoC4/cyfitter_cfg.c **** 	CY_SET_XTND_REG32((void CYFAR *)CYREG_CTB0_OA1_SW, 0x28000000u);
 238:Generated_Source\PSoC4/cyfitter_cfg.c **** 	CY_SET_XTND_REG32((void CYFAR *)CYREG_CTB1_CTB_CTRL, 0x80000000u);
 239:Generated_Source\PSoC4/cyfitter_cfg.c **** 	CY_SET_XTND_REG32((void CYFAR *)CYREG_CTB1_OA0_SW, 0x00040002u);
 240:Generated_Source\PSoC4/cyfitter_cfg.c **** 	CY_SET_XTND_REG32((void CYFAR *)CYREG_ART_CTRL, 0x80000000u);
 241:Generated_Source\PSoC4/cyfitter_cfg.c **** 	CY_SET_XTND_REG32((void CYFAR *)CYREG_ART_SARMUXVPLUS_SW, 0x01000000u);
 242:Generated_Source\PSoC4/cyfitter_cfg.c **** 	CY_SET_XTND_REG32((void CYFAR *)CYREG_ART_CTB0VREF_SW, 0x00000002u);
ARM GAS  C:\Users\Crowling\AppData\Local\Temp\ccBFOglO.s 			page 8


 243:Generated_Source\PSoC4/cyfitter_cfg.c **** 	CY_SET_XTND_REG32((void CYFAR *)CYREG_PASS_PASS_CTRL, 0x00000003u);
 244:Generated_Source\PSoC4/cyfitter_cfg.c **** 	CY_SET_XTND_REG32((void CYFAR *)CYREG_PASS_PRB_CTRL, 0x80000001u);
 245:Generated_Source\PSoC4/cyfitter_cfg.c **** 	CY_SET_XTND_REG32((void CYFAR *)CYREG_PASS_PRB_REF0, 0x000000F1u);
 246:Generated_Source\PSoC4/cyfitter_cfg.c **** 	CY_SET_XTND_REG32((void CYFAR *)CYREG_PASS_DSAB_DSAB_CTRL, 0x00000020u);
 247:Generated_Source\PSoC4/cyfitter_cfg.c **** 	SetAnalogRoutingPumps(1);
 248:Generated_Source\PSoC4/cyfitter_cfg.c **** }
 249:Generated_Source\PSoC4/cyfitter_cfg.c **** 
 250:Generated_Source\PSoC4/cyfitter_cfg.c **** 
 251:Generated_Source\PSoC4/cyfitter_cfg.c **** /*******************************************************************************
 252:Generated_Source\PSoC4/cyfitter_cfg.c **** * Function Name: SetAnalogRoutingPumps
 253:Generated_Source\PSoC4/cyfitter_cfg.c **** ********************************************************************************
 254:Generated_Source\PSoC4/cyfitter_cfg.c **** *
 255:Generated_Source\PSoC4/cyfitter_cfg.c **** * Summary:
 256:Generated_Source\PSoC4/cyfitter_cfg.c **** * Enables or disables the analog pumps feeding analog routing switches.
 257:Generated_Source\PSoC4/cyfitter_cfg.c **** * Intended to be called at startup, based on the Vdda system configuration;
 258:Generated_Source\PSoC4/cyfitter_cfg.c **** * may be called during operation when the user informs us that the Vdda voltage crossed the pump th
 259:Generated_Source\PSoC4/cyfitter_cfg.c **** *
 260:Generated_Source\PSoC4/cyfitter_cfg.c **** * Parameters:
 261:Generated_Source\PSoC4/cyfitter_cfg.c **** *  enabled - 1 to enable the pumps, 0 to disable the pumps
 262:Generated_Source\PSoC4/cyfitter_cfg.c **** *
 263:Generated_Source\PSoC4/cyfitter_cfg.c **** * Return:
 264:Generated_Source\PSoC4/cyfitter_cfg.c **** *  void
 265:Generated_Source\PSoC4/cyfitter_cfg.c **** *
 266:Generated_Source\PSoC4/cyfitter_cfg.c **** *******************************************************************************/
 267:Generated_Source\PSoC4/cyfitter_cfg.c **** void SetAnalogRoutingPumps(uint8 enabled)
 268:Generated_Source\PSoC4/cyfitter_cfg.c **** {
 158              		.loc 1 268 0
 159              		.cfi_startproc
 160              		@ args = 0, pretend = 0, frame = 0
 161              		@ frame_needed = 0, uses_anonymous_args = 0
 162              		@ link register save eliminated.
 163              	.LVL4:
 269:Generated_Source\PSoC4/cyfitter_cfg.c **** 	uint32 regValue = CY_GET_XTND_REG32((void *)(CYREG_SAR_PUMP_CTRL));
 164              		.loc 1 269 0
 165 0000 064B     		ldr	r3, .L7
 166 0002 1B68     		ldr	r3, [r3]
 167              	.LVL5:
 270:Generated_Source\PSoC4/cyfitter_cfg.c **** 	if (enabled != 0u)
 168              		.loc 1 270 0
 169 0004 0028     		cmp	r0, #0
 170 0006 03D0     		beq	.L5
 271:Generated_Source\PSoC4/cyfitter_cfg.c **** 	{
 272:Generated_Source\PSoC4/cyfitter_cfg.c **** 		regValue |= 0x80000000u;
 171              		.loc 1 272 0
 172 0008 8022     		movs	r2, #128
 173 000a 1206     		lsls	r2, r2, #24
 174 000c 1343     		orrs	r3, r2
 175              	.LVL6:
 176 000e 01E0     		b	.L6
 177              	.L5:
 273:Generated_Source\PSoC4/cyfitter_cfg.c **** 	}
 274:Generated_Source\PSoC4/cyfitter_cfg.c **** 	else
 275:Generated_Source\PSoC4/cyfitter_cfg.c **** 	{
 276:Generated_Source\PSoC4/cyfitter_cfg.c **** 		regValue &= ~0x80000000u;
 178              		.loc 1 276 0
 179 0010 5B00     		lsls	r3, r3, #1
 180              	.LVL7:
ARM GAS  C:\Users\Crowling\AppData\Local\Temp\ccBFOglO.s 			page 9


 181 0012 5B08     		lsrs	r3, r3, #1
 182              	.LVL8:
 183              	.L6:
 277:Generated_Source\PSoC4/cyfitter_cfg.c **** 	}
 278:Generated_Source\PSoC4/cyfitter_cfg.c **** 	CY_SET_XTND_REG32((void *)(CYREG_SAR_PUMP_CTRL), regValue);
 184              		.loc 1 278 0
 185 0014 014A     		ldr	r2, .L7
 186 0016 1360     		str	r3, [r2]
 279:Generated_Source\PSoC4/cyfitter_cfg.c **** }
 187              		.loc 1 279 0
 188              		@ sp needed
 189 0018 7047     		bx	lr
 190              	.L8:
 191 001a C046     		.align	2
 192              	.L7:
 193 001c 80033A40 		.word	1077543808
 194              		.cfi_endproc
 195              	.LFE6:
 196              		.size	SetAnalogRoutingPumps, .-SetAnalogRoutingPumps
 197              		.section	.text.AnalogSetDefault,"ax",%progbits
 198              		.align	2
 199              		.code	16
 200              		.thumb_func
 201              		.type	AnalogSetDefault, %function
 202              	AnalogSetDefault:
 203              	.LFB5:
 234:Generated_Source\PSoC4/cyfitter_cfg.c **** 	CY_SET_XTND_REG32((void CYFAR *)CYREG_CTB0_CTB_CTRL, 0x80000000u);
 204              		.loc 1 234 0
 205              		.cfi_startproc
 206              		@ args = 0, pretend = 0, frame = 0
 207              		@ frame_needed = 0, uses_anonymous_args = 0
 208 0000 10B5     		push	{r4, lr}
 209              		.cfi_def_cfa_offset 8
 210              		.cfi_offset 4, -8
 211              		.cfi_offset 14, -4
 235:Generated_Source\PSoC4/cyfitter_cfg.c **** 	CY_SET_XTND_REG32((void CYFAR *)CYREG_CTB0_OA0_SW, 0x01080080u);
 212              		.loc 1 235 0
 213 0002 8023     		movs	r3, #128
 214 0004 1B06     		lsls	r3, r3, #24
 215 0006 134A     		ldr	r2, .L10
 216 0008 1360     		str	r3, [r2]
 236:Generated_Source\PSoC4/cyfitter_cfg.c **** 	CY_SET_XTND_REG32((void CYFAR *)CYREG_CTB0_OA1_SW, 0x28000000u);
 217              		.loc 1 236 0
 218 000a 1349     		ldr	r1, .L10+4
 219 000c 134A     		ldr	r2, .L10+8
 220 000e 1160     		str	r1, [r2]
 237:Generated_Source\PSoC4/cyfitter_cfg.c **** 	CY_SET_XTND_REG32((void CYFAR *)CYREG_CTB1_CTB_CTRL, 0x80000000u);
 221              		.loc 1 237 0
 222 0010 A021     		movs	r1, #160
 223 0012 8905     		lsls	r1, r1, #22
 224 0014 124A     		ldr	r2, .L10+12
 225 0016 1160     		str	r1, [r2]
 238:Generated_Source\PSoC4/cyfitter_cfg.c **** 	CY_SET_XTND_REG32((void CYFAR *)CYREG_CTB1_OA0_SW, 0x00040002u);
 226              		.loc 1 238 0
 227 0018 124A     		ldr	r2, .L10+16
 228 001a 1360     		str	r3, [r2]
 239:Generated_Source\PSoC4/cyfitter_cfg.c **** 	CY_SET_XTND_REG32((void CYFAR *)CYREG_ART_CTRL, 0x80000000u);
ARM GAS  C:\Users\Crowling\AppData\Local\Temp\ccBFOglO.s 			page 10


 229              		.loc 1 239 0
 230 001c 1249     		ldr	r1, .L10+20
 231 001e 134A     		ldr	r2, .L10+24
 232 0020 1160     		str	r1, [r2]
 240:Generated_Source\PSoC4/cyfitter_cfg.c **** 	CY_SET_XTND_REG32((void CYFAR *)CYREG_ART_SARMUXVPLUS_SW, 0x01000000u);
 233              		.loc 1 240 0
 234 0022 134A     		ldr	r2, .L10+28
 235 0024 1360     		str	r3, [r2]
 241:Generated_Source\PSoC4/cyfitter_cfg.c **** 	CY_SET_XTND_REG32((void CYFAR *)CYREG_ART_CTB0VREF_SW, 0x00000002u);
 236              		.loc 1 241 0
 237 0026 8022     		movs	r2, #128
 238 0028 5204     		lsls	r2, r2, #17
 239 002a 124B     		ldr	r3, .L10+32
 240 002c 1A60     		str	r2, [r3]
 242:Generated_Source\PSoC4/cyfitter_cfg.c **** 	CY_SET_XTND_REG32((void CYFAR *)CYREG_PASS_PASS_CTRL, 0x00000003u);
 241              		.loc 1 242 0
 242 002e 0222     		movs	r2, #2
 243 0030 114B     		ldr	r3, .L10+36
 244 0032 1A60     		str	r2, [r3]
 243:Generated_Source\PSoC4/cyfitter_cfg.c **** 	CY_SET_XTND_REG32((void CYFAR *)CYREG_PASS_PRB_CTRL, 0x80000001u);
 245              		.loc 1 243 0
 246 0034 0132     		adds	r2, r2, #1
 247 0036 114B     		ldr	r3, .L10+40
 248 0038 1A60     		str	r2, [r3]
 244:Generated_Source\PSoC4/cyfitter_cfg.c **** 	CY_SET_XTND_REG32((void CYFAR *)CYREG_PASS_PRB_REF0, 0x000000F1u);
 249              		.loc 1 244 0
 250 003a 114A     		ldr	r2, .L10+44
 251 003c 114B     		ldr	r3, .L10+48
 252 003e 1A60     		str	r2, [r3]
 245:Generated_Source\PSoC4/cyfitter_cfg.c **** 	CY_SET_XTND_REG32((void CYFAR *)CYREG_PASS_DSAB_DSAB_CTRL, 0x00000020u);
 253              		.loc 1 245 0
 254 0040 F122     		movs	r2, #241
 255 0042 114B     		ldr	r3, .L10+52
 256 0044 1A60     		str	r2, [r3]
 246:Generated_Source\PSoC4/cyfitter_cfg.c **** 	SetAnalogRoutingPumps(1);
 257              		.loc 1 246 0
 258 0046 D13A     		subs	r2, r2, #209
 259 0048 104B     		ldr	r3, .L10+56
 260 004a 1A60     		str	r2, [r3]
 247:Generated_Source\PSoC4/cyfitter_cfg.c **** }
 261              		.loc 1 247 0
 262 004c 0120     		movs	r0, #1
 263 004e FFF7FEFF 		bl	SetAnalogRoutingPumps
 264              	.LVL9:
 248:Generated_Source\PSoC4/cyfitter_cfg.c **** 
 265              		.loc 1 248 0
 266              		@ sp needed
 267 0052 10BD     		pop	{r4, pc}
 268              	.L11:
 269              		.align	2
 270              	.L10:
 271 0054 00003040 		.word	1076887552
 272 0058 80000801 		.word	17301632
 273 005c 80003040 		.word	1076887680
 274 0060 88003040 		.word	1076887688
 275 0064 00003140 		.word	1076953088
 276 0068 02000400 		.word	262146
ARM GAS  C:\Users\Crowling\AppData\Local\Temp\ccBFOglO.s 			page 11


 277 006c 80003140 		.word	1076953216
 278 0070 00003840 		.word	1077411840
 279 0074 10003840 		.word	1077411856
 280 0078 40013840 		.word	1077412160
 281 007c 08013F40 		.word	1077870856
 282 0080 01000080 		.word	-2147483647
 283 0084 00023F40 		.word	1077871104
 284 0088 04023F40 		.word	1077871108
 285 008c 000E3F40 		.word	1077874176
 286              		.cfi_endproc
 287              	.LFE5:
 288              		.size	AnalogSetDefault, .-AnalogSetDefault
 289              		.section	.text.AMux_2_Set,"ax",%progbits
 290              		.align	2
 291              		.global	AMux_2_Set
 292              		.code	16
 293              		.thumb_func
 294              		.type	AMux_2_Set, %function
 295              	AMux_2_Set:
 296              	.LFB7:
 280:Generated_Source\PSoC4/cyfitter_cfg.c **** 
 281:Generated_Source\PSoC4/cyfitter_cfg.c **** 
 282:Generated_Source\PSoC4/cyfitter_cfg.c **** #define CY_AMUX_UNUSED CYREG_CM0P_ROM_DWT
 283:Generated_Source\PSoC4/cyfitter_cfg.c **** /*******************************************************************************
 284:Generated_Source\PSoC4/cyfitter_cfg.c **** * Function Name: AMux_2_Set
 285:Generated_Source\PSoC4/cyfitter_cfg.c **** ********************************************************************************
 286:Generated_Source\PSoC4/cyfitter_cfg.c **** * Summary:
 287:Generated_Source\PSoC4/cyfitter_cfg.c **** *  This function is used to set a particular channel as active on the AMux.
 288:Generated_Source\PSoC4/cyfitter_cfg.c **** *
 289:Generated_Source\PSoC4/cyfitter_cfg.c **** * Parameters:  
 290:Generated_Source\PSoC4/cyfitter_cfg.c **** *   channel - The mux channel input to set as active
 291:Generated_Source\PSoC4/cyfitter_cfg.c **** *
 292:Generated_Source\PSoC4/cyfitter_cfg.c **** * Return:
 293:Generated_Source\PSoC4/cyfitter_cfg.c **** *   void
 294:Generated_Source\PSoC4/cyfitter_cfg.c **** *
 295:Generated_Source\PSoC4/cyfitter_cfg.c **** *******************************************************************************/
 296:Generated_Source\PSoC4/cyfitter_cfg.c **** void AMux_2_Set(uint8 channel)
 297:Generated_Source\PSoC4/cyfitter_cfg.c **** {
 297              		.loc 1 297 0
 298              		.cfi_startproc
 299              		@ args = 0, pretend = 0, frame = 0
 300              		@ frame_needed = 0, uses_anonymous_args = 0
 301              		@ link register save eliminated.
 302              	.LVL10:
 298:Generated_Source\PSoC4/cyfitter_cfg.c **** 	switch (channel) {
 303              		.loc 1 298 0
 304 0000 0028     		cmp	r0, #0
 305 0002 02D0     		beq	.L14
 306 0004 0128     		cmp	r0, #1
 307 0006 04D0     		beq	.L15
 308 0008 06E0     		b	.L12
 309              	.L14:
 299:Generated_Source\PSoC4/cyfitter_cfg.c **** 		case 0u:
 300:Generated_Source\PSoC4/cyfitter_cfg.c **** 			CY_SET_REG32((void CYXDATA *)CYREG_ART_SARMUXVPLUS_SW, (0x02u));
 310              		.loc 1 300 0
 311 000a 0222     		movs	r2, #2
 312 000c 034B     		ldr	r3, .L16
ARM GAS  C:\Users\Crowling\AppData\Local\Temp\ccBFOglO.s 			page 12


 313 000e 1A60     		str	r2, [r3]
 301:Generated_Source\PSoC4/cyfitter_cfg.c **** 			break;
 314              		.loc 1 301 0
 315 0010 02E0     		b	.L12
 316              	.L15:
 302:Generated_Source\PSoC4/cyfitter_cfg.c **** 		case 1u:
 303:Generated_Source\PSoC4/cyfitter_cfg.c **** 			CY_SET_REG32((void CYXDATA *)CYREG_ART_SARMUXVPLUS_SW, (0x10u));
 317              		.loc 1 303 0
 318 0012 1022     		movs	r2, #16
 319 0014 014B     		ldr	r3, .L16
 320 0016 1A60     		str	r2, [r3]
 321              	.L12:
 304:Generated_Source\PSoC4/cyfitter_cfg.c **** 			break;
 305:Generated_Source\PSoC4/cyfitter_cfg.c **** 		default:
 306:Generated_Source\PSoC4/cyfitter_cfg.c **** 			break;
 307:Generated_Source\PSoC4/cyfitter_cfg.c **** 	}
 308:Generated_Source\PSoC4/cyfitter_cfg.c **** }
 322              		.loc 1 308 0
 323              		@ sp needed
 324 0018 7047     		bx	lr
 325              	.L17:
 326 001a C046     		.align	2
 327              	.L16:
 328 001c 10003840 		.word	1077411856
 329              		.cfi_endproc
 330              	.LFE7:
 331              		.size	AMux_2_Set, .-AMux_2_Set
 332              		.section	.text.AMux_2_Unset,"ax",%progbits
 333              		.align	2
 334              		.global	AMux_2_Unset
 335              		.code	16
 336              		.thumb_func
 337              		.type	AMux_2_Unset, %function
 338              	AMux_2_Unset:
 339              	.LFB8:
 309:Generated_Source\PSoC4/cyfitter_cfg.c **** 
 310:Generated_Source\PSoC4/cyfitter_cfg.c **** /*******************************************************************************
 311:Generated_Source\PSoC4/cyfitter_cfg.c **** * Function Name: AMux_2_Unset
 312:Generated_Source\PSoC4/cyfitter_cfg.c **** ********************************************************************************
 313:Generated_Source\PSoC4/cyfitter_cfg.c **** * Summary:
 314:Generated_Source\PSoC4/cyfitter_cfg.c **** *  This function is used to clear a particular channel from being active on the
 315:Generated_Source\PSoC4/cyfitter_cfg.c **** *  AMux.
 316:Generated_Source\PSoC4/cyfitter_cfg.c **** *
 317:Generated_Source\PSoC4/cyfitter_cfg.c **** * Parameters:  
 318:Generated_Source\PSoC4/cyfitter_cfg.c **** *   channel - The mux channel input to mark inactive
 319:Generated_Source\PSoC4/cyfitter_cfg.c **** *
 320:Generated_Source\PSoC4/cyfitter_cfg.c **** * Return:
 321:Generated_Source\PSoC4/cyfitter_cfg.c **** *   void
 322:Generated_Source\PSoC4/cyfitter_cfg.c **** *
 323:Generated_Source\PSoC4/cyfitter_cfg.c **** *******************************************************************************/
 324:Generated_Source\PSoC4/cyfitter_cfg.c **** void AMux_2_Unset(uint8 channel)
 325:Generated_Source\PSoC4/cyfitter_cfg.c **** {
 340              		.loc 1 325 0
 341              		.cfi_startproc
 342              		@ args = 0, pretend = 0, frame = 0
 343              		@ frame_needed = 0, uses_anonymous_args = 0
 344              		@ link register save eliminated.
ARM GAS  C:\Users\Crowling\AppData\Local\Temp\ccBFOglO.s 			page 13


 345              	.LVL11:
 326:Generated_Source\PSoC4/cyfitter_cfg.c **** 	switch (channel) {
 346              		.loc 1 326 0
 347 0000 0028     		cmp	r0, #0
 348 0002 02D0     		beq	.L20
 349 0004 0128     		cmp	r0, #1
 350 0006 04D0     		beq	.L21
 351 0008 06E0     		b	.L18
 352              	.L20:
 327:Generated_Source\PSoC4/cyfitter_cfg.c **** 		case 0u:
 328:Generated_Source\PSoC4/cyfitter_cfg.c **** 			CY_SET_REG32((void CYXDATA *)CYREG_ART_SARMUXVPLUS_SW_CLR, (0x02u));
 353              		.loc 1 328 0
 354 000a 0222     		movs	r2, #2
 355 000c 034B     		ldr	r3, .L22
 356 000e 1A60     		str	r2, [r3]
 329:Generated_Source\PSoC4/cyfitter_cfg.c **** 			break;
 357              		.loc 1 329 0
 358 0010 02E0     		b	.L18
 359              	.L21:
 330:Generated_Source\PSoC4/cyfitter_cfg.c **** 		case 1u:
 331:Generated_Source\PSoC4/cyfitter_cfg.c **** 			CY_SET_REG32((void CYXDATA *)CYREG_ART_SARMUXVPLUS_SW_CLR, (0x10u));
 360              		.loc 1 331 0
 361 0012 1022     		movs	r2, #16
 362 0014 014B     		ldr	r3, .L22
 363 0016 1A60     		str	r2, [r3]
 364              	.L18:
 332:Generated_Source\PSoC4/cyfitter_cfg.c **** 			break;
 333:Generated_Source\PSoC4/cyfitter_cfg.c **** 		default:
 334:Generated_Source\PSoC4/cyfitter_cfg.c **** 			break;
 335:Generated_Source\PSoC4/cyfitter_cfg.c **** 	}
 336:Generated_Source\PSoC4/cyfitter_cfg.c **** }
 365              		.loc 1 336 0
 366              		@ sp needed
 367 0018 7047     		bx	lr
 368              	.L23:
 369 001a C046     		.align	2
 370              	.L22:
 371 001c 14003840 		.word	1077411860
 372              		.cfi_endproc
 373              	.LFE8:
 374              		.size	AMux_2_Unset, .-AMux_2_Unset
 375              		.section	.text.AMux_1_Set,"ax",%progbits
 376              		.align	2
 377              		.global	AMux_1_Set
 378              		.code	16
 379              		.thumb_func
 380              		.type	AMux_1_Set, %function
 381              	AMux_1_Set:
 382              	.LFB9:
 337:Generated_Source\PSoC4/cyfitter_cfg.c **** 
 338:Generated_Source\PSoC4/cyfitter_cfg.c **** /*******************************************************************************
 339:Generated_Source\PSoC4/cyfitter_cfg.c **** * Function Name: AMux_1_Set
 340:Generated_Source\PSoC4/cyfitter_cfg.c **** ********************************************************************************
 341:Generated_Source\PSoC4/cyfitter_cfg.c **** * Summary:
 342:Generated_Source\PSoC4/cyfitter_cfg.c **** *  This function is used to set a particular channel as active on the AMux.
 343:Generated_Source\PSoC4/cyfitter_cfg.c **** *
 344:Generated_Source\PSoC4/cyfitter_cfg.c **** * Parameters:  
ARM GAS  C:\Users\Crowling\AppData\Local\Temp\ccBFOglO.s 			page 14


 345:Generated_Source\PSoC4/cyfitter_cfg.c **** *   channel - The mux channel input to set as active
 346:Generated_Source\PSoC4/cyfitter_cfg.c **** *
 347:Generated_Source\PSoC4/cyfitter_cfg.c **** * Return:
 348:Generated_Source\PSoC4/cyfitter_cfg.c **** *   void
 349:Generated_Source\PSoC4/cyfitter_cfg.c **** *
 350:Generated_Source\PSoC4/cyfitter_cfg.c **** *******************************************************************************/
 351:Generated_Source\PSoC4/cyfitter_cfg.c **** void AMux_1_Set(uint8 channel)
 352:Generated_Source\PSoC4/cyfitter_cfg.c **** {
 383              		.loc 1 352 0
 384              		.cfi_startproc
 385              		@ args = 0, pretend = 0, frame = 0
 386              		@ frame_needed = 0, uses_anonymous_args = 0
 387              		@ link register save eliminated.
 388              	.LVL12:
 353:Generated_Source\PSoC4/cyfitter_cfg.c **** 	switch (channel) {
 389              		.loc 1 353 0
 390 0000 0128     		cmp	r0, #1
 391 0002 08D0     		beq	.L26
 392 0004 0028     		cmp	r0, #0
 393 0006 02D0     		beq	.L27
 394 0008 0228     		cmp	r0, #2
 395 000a 08D0     		beq	.L28
 396 000c 0CE0     		b	.L24
 397              	.L27:
 354:Generated_Source\PSoC4/cyfitter_cfg.c **** 		case 0u:
 355:Generated_Source\PSoC4/cyfitter_cfg.c **** 			CY_SET_REG32((void CYXDATA *)CYREG_CTB0_OA1_SW, (0x02u));
 398              		.loc 1 355 0
 399 000e 0222     		movs	r2, #2
 400 0010 064B     		ldr	r3, .L29
 401 0012 1A60     		str	r2, [r3]
 356:Generated_Source\PSoC4/cyfitter_cfg.c **** 			break;
 402              		.loc 1 356 0
 403 0014 08E0     		b	.L24
 404              	.L26:
 357:Generated_Source\PSoC4/cyfitter_cfg.c **** 		case 1u:
 358:Generated_Source\PSoC4/cyfitter_cfg.c **** 			CY_SET_REG32((void CYXDATA *)CYREG_CTB0_OA1_SW, (0x04u));
 405              		.loc 1 358 0
 406 0016 0422     		movs	r2, #4
 407 0018 044B     		ldr	r3, .L29
 408 001a 1A60     		str	r2, [r3]
 359:Generated_Source\PSoC4/cyfitter_cfg.c **** 			break;
 409              		.loc 1 359 0
 410 001c 04E0     		b	.L24
 411              	.L28:
 360:Generated_Source\PSoC4/cyfitter_cfg.c **** 		case 2u:
 361:Generated_Source\PSoC4/cyfitter_cfg.c **** 			CY_SET_REG32((void CYXDATA *)CYREG_CTB0_CTBBUS_SW, (0x08u));
 412              		.loc 1 361 0
 413 001e 0823     		movs	r3, #8
 414 0020 034A     		ldr	r2, .L29+4
 415 0022 1360     		str	r3, [r2]
 362:Generated_Source\PSoC4/cyfitter_cfg.c **** 			CY_SET_REG32((void CYXDATA *)CYREG_CTB0_OA1_SW, (0x08u));
 416              		.loc 1 362 0
 417 0024 014A     		ldr	r2, .L29
 418 0026 1360     		str	r3, [r2]
 419              	.L24:
 363:Generated_Source\PSoC4/cyfitter_cfg.c **** 			break;
 364:Generated_Source\PSoC4/cyfitter_cfg.c **** 		default:
ARM GAS  C:\Users\Crowling\AppData\Local\Temp\ccBFOglO.s 			page 15


 365:Generated_Source\PSoC4/cyfitter_cfg.c **** 			break;
 366:Generated_Source\PSoC4/cyfitter_cfg.c **** 	}
 367:Generated_Source\PSoC4/cyfitter_cfg.c **** }
 420              		.loc 1 367 0
 421              		@ sp needed
 422 0028 7047     		bx	lr
 423              	.L30:
 424 002a C046     		.align	2
 425              	.L29:
 426 002c 88003040 		.word	1076887688
 427 0030 90003040 		.word	1076887696
 428              		.cfi_endproc
 429              	.LFE9:
 430              		.size	AMux_1_Set, .-AMux_1_Set
 431              		.section	.text.AMux_1_Unset,"ax",%progbits
 432              		.align	2
 433              		.global	AMux_1_Unset
 434              		.code	16
 435              		.thumb_func
 436              		.type	AMux_1_Unset, %function
 437              	AMux_1_Unset:
 438              	.LFB10:
 368:Generated_Source\PSoC4/cyfitter_cfg.c **** 
 369:Generated_Source\PSoC4/cyfitter_cfg.c **** /*******************************************************************************
 370:Generated_Source\PSoC4/cyfitter_cfg.c **** * Function Name: AMux_1_Unset
 371:Generated_Source\PSoC4/cyfitter_cfg.c **** ********************************************************************************
 372:Generated_Source\PSoC4/cyfitter_cfg.c **** * Summary:
 373:Generated_Source\PSoC4/cyfitter_cfg.c **** *  This function is used to clear a particular channel from being active on the
 374:Generated_Source\PSoC4/cyfitter_cfg.c **** *  AMux.
 375:Generated_Source\PSoC4/cyfitter_cfg.c **** *
 376:Generated_Source\PSoC4/cyfitter_cfg.c **** * Parameters:  
 377:Generated_Source\PSoC4/cyfitter_cfg.c **** *   channel - The mux channel input to mark inactive
 378:Generated_Source\PSoC4/cyfitter_cfg.c **** *
 379:Generated_Source\PSoC4/cyfitter_cfg.c **** * Return:
 380:Generated_Source\PSoC4/cyfitter_cfg.c **** *   void
 381:Generated_Source\PSoC4/cyfitter_cfg.c **** *
 382:Generated_Source\PSoC4/cyfitter_cfg.c **** *******************************************************************************/
 383:Generated_Source\PSoC4/cyfitter_cfg.c **** void AMux_1_Unset(uint8 channel)
 384:Generated_Source\PSoC4/cyfitter_cfg.c **** {
 439              		.loc 1 384 0
 440              		.cfi_startproc
 441              		@ args = 0, pretend = 0, frame = 0
 442              		@ frame_needed = 0, uses_anonymous_args = 0
 443              		@ link register save eliminated.
 444              	.LVL13:
 385:Generated_Source\PSoC4/cyfitter_cfg.c **** 	switch (channel) {
 445              		.loc 1 385 0
 446 0000 0128     		cmp	r0, #1
 447 0002 08D0     		beq	.L33
 448 0004 0028     		cmp	r0, #0
 449 0006 02D0     		beq	.L34
 450 0008 0228     		cmp	r0, #2
 451 000a 08D0     		beq	.L35
 452 000c 0CE0     		b	.L31
 453              	.L34:
 386:Generated_Source\PSoC4/cyfitter_cfg.c **** 		case 0u:
 387:Generated_Source\PSoC4/cyfitter_cfg.c **** 			CY_SET_REG32((void CYXDATA *)CYREG_CTB0_OA1_SW_CLEAR, (0x02u));
ARM GAS  C:\Users\Crowling\AppData\Local\Temp\ccBFOglO.s 			page 16


 454              		.loc 1 387 0
 455 000e 0222     		movs	r2, #2
 456 0010 064B     		ldr	r3, .L36
 457 0012 1A60     		str	r2, [r3]
 388:Generated_Source\PSoC4/cyfitter_cfg.c **** 			break;
 458              		.loc 1 388 0
 459 0014 08E0     		b	.L31
 460              	.L33:
 389:Generated_Source\PSoC4/cyfitter_cfg.c **** 		case 1u:
 390:Generated_Source\PSoC4/cyfitter_cfg.c **** 			CY_SET_REG32((void CYXDATA *)CYREG_CTB0_OA1_SW_CLEAR, (0x04u));
 461              		.loc 1 390 0
 462 0016 0422     		movs	r2, #4
 463 0018 044B     		ldr	r3, .L36
 464 001a 1A60     		str	r2, [r3]
 391:Generated_Source\PSoC4/cyfitter_cfg.c **** 			break;
 465              		.loc 1 391 0
 466 001c 04E0     		b	.L31
 467              	.L35:
 392:Generated_Source\PSoC4/cyfitter_cfg.c **** 		case 2u:
 393:Generated_Source\PSoC4/cyfitter_cfg.c **** 			CY_SET_REG32((void CYXDATA *)CYREG_CTB0_CTBBUS_SW_CLEAR, (0x08u));
 468              		.loc 1 393 0
 469 001e 0823     		movs	r3, #8
 470 0020 034A     		ldr	r2, .L36+4
 471 0022 1360     		str	r3, [r2]
 394:Generated_Source\PSoC4/cyfitter_cfg.c **** 			CY_SET_REG32((void CYXDATA *)CYREG_CTB0_OA1_SW_CLEAR, (0x08u));
 472              		.loc 1 394 0
 473 0024 014A     		ldr	r2, .L36
 474 0026 1360     		str	r3, [r2]
 475              	.L31:
 395:Generated_Source\PSoC4/cyfitter_cfg.c **** 			break;
 396:Generated_Source\PSoC4/cyfitter_cfg.c **** 		default:
 397:Generated_Source\PSoC4/cyfitter_cfg.c **** 			break;
 398:Generated_Source\PSoC4/cyfitter_cfg.c **** 	}
 399:Generated_Source\PSoC4/cyfitter_cfg.c **** }
 476              		.loc 1 399 0
 477              		@ sp needed
 478 0028 7047     		bx	lr
 479              	.L37:
 480 002a C046     		.align	2
 481              	.L36:
 482 002c 8C003040 		.word	1076887692
 483 0030 94003040 		.word	1076887700
 484              		.cfi_endproc
 485              	.LFE10:
 486              		.size	AMux_1_Unset, .-AMux_1_Unset
 487              		.section	.psocinit
 488              		.align	2
 489              		.global	cyfitter_cfg
 490              		.code	16
 491              		.thumb_func
 492              		.type	cyfitter_cfg, %function
 493              	cyfitter_cfg:
 494              	.LFB11:
 400:Generated_Source\PSoC4/cyfitter_cfg.c **** 
 401:Generated_Source\PSoC4/cyfitter_cfg.c **** 
 402:Generated_Source\PSoC4/cyfitter_cfg.c **** 
 403:Generated_Source\PSoC4/cyfitter_cfg.c **** /*******************************************************************************
ARM GAS  C:\Users\Crowling\AppData\Local\Temp\ccBFOglO.s 			page 17


 404:Generated_Source\PSoC4/cyfitter_cfg.c **** * Function Name: cyfitter_cfg
 405:Generated_Source\PSoC4/cyfitter_cfg.c **** ********************************************************************************
 406:Generated_Source\PSoC4/cyfitter_cfg.c **** * Summary:
 407:Generated_Source\PSoC4/cyfitter_cfg.c **** *  This function is called by the start-up code for the selected device. It
 408:Generated_Source\PSoC4/cyfitter_cfg.c **** *  performs all of the necessary device configuration based on the design
 409:Generated_Source\PSoC4/cyfitter_cfg.c **** *  settings.  This includes settings from the Design Wide Resources (DWR) such
 410:Generated_Source\PSoC4/cyfitter_cfg.c **** *  as Clocks and Pins as well as any component configuration that is necessary.
 411:Generated_Source\PSoC4/cyfitter_cfg.c **** *
 412:Generated_Source\PSoC4/cyfitter_cfg.c **** * Parameters:
 413:Generated_Source\PSoC4/cyfitter_cfg.c **** *   void
 414:Generated_Source\PSoC4/cyfitter_cfg.c **** *
 415:Generated_Source\PSoC4/cyfitter_cfg.c **** * Return:
 416:Generated_Source\PSoC4/cyfitter_cfg.c **** *   void
 417:Generated_Source\PSoC4/cyfitter_cfg.c **** *
 418:Generated_Source\PSoC4/cyfitter_cfg.c **** *******************************************************************************/
 419:Generated_Source\PSoC4/cyfitter_cfg.c **** CY_CFG_SECTION
 420:Generated_Source\PSoC4/cyfitter_cfg.c **** void cyfitter_cfg(void)
 421:Generated_Source\PSoC4/cyfitter_cfg.c **** {
 495              		.loc 1 421 0
 496              		.cfi_startproc
 497              		@ args = 0, pretend = 0, frame = 0
 498              		@ frame_needed = 0, uses_anonymous_args = 0
 499 00d4 10B5     		push	{r4, lr}
 500              		.cfi_def_cfa_offset 8
 501              		.cfi_offset 4, -8
 502              		.cfi_offset 14, -4
 422:Generated_Source\PSoC4/cyfitter_cfg.c **** 	/* Disable interrupts by default. Let user enable if/when they want. */
 423:Generated_Source\PSoC4/cyfitter_cfg.c **** 	CyGlobalIntDisable;
 503              		.loc 1 423 0
 504              		.syntax divided
 505              	@ 423 "Generated_Source\PSoC4\cyfitter_cfg.c" 1
 506 00d6 72B6     		CPSID   i
 507              	@ 0 "" 2
 424:Generated_Source\PSoC4/cyfitter_cfg.c **** 
 425:Generated_Source\PSoC4/cyfitter_cfg.c **** 	{
 426:Generated_Source\PSoC4/cyfitter_cfg.c **** 		/* HSIOM Starting address: CYDEV_HSIOM_BASE */
 427:Generated_Source\PSoC4/cyfitter_cfg.c **** 		CY_SET_REG32((void *)(CYDEV_HSIOM_BASE), 0x009900EEu);
 508              		.loc 1 427 0
 509              		.thumb
 510              		.syntax unified
 511 00d8 114A     		ldr	r2, .L39
 512 00da 124B     		ldr	r3, .L39+4
 513 00dc 1A60     		str	r2, [r3]
 428:Generated_Source\PSoC4/cyfitter_cfg.c **** 		CY_SET_REG32((void *)(CYREG_HSIOM_PORT_SEL3), 0x000000EEu);
 514              		.loc 1 428 0
 515 00de EE22     		movs	r2, #238
 516 00e0 114B     		ldr	r3, .L39+8
 517 00e2 1A60     		str	r2, [r3]
 429:Generated_Source\PSoC4/cyfitter_cfg.c **** 
 430:Generated_Source\PSoC4/cyfitter_cfg.c **** 		/* PASS_SAR_TRIG_SEL Starting address: CYDEV_PASS_SAR_TRIG_SEL */
 431:Generated_Source\PSoC4/cyfitter_cfg.c **** 		CY_SET_REG32((void *)(CYREG_PASS_SAR_TRIG_SEL), 0x00000000u);
 518              		.loc 1 431 0
 519 00e4 0022     		movs	r2, #0
 520 00e6 114B     		ldr	r3, .L39+12
 521 00e8 1A60     		str	r2, [r3]
 432:Generated_Source\PSoC4/cyfitter_cfg.c **** 
 433:Generated_Source\PSoC4/cyfitter_cfg.c **** 	}
ARM GAS  C:\Users\Crowling\AppData\Local\Temp\ccBFOglO.s 			page 18


 434:Generated_Source\PSoC4/cyfitter_cfg.c **** 
 435:Generated_Source\PSoC4/cyfitter_cfg.c **** 	/* Perform second pass device configuration. These items must be configured in specific order afte
 436:Generated_Source\PSoC4/cyfitter_cfg.c **** 	/* IOPINS0_0 Starting address: CYDEV_GPIO_PRT0_BASE */
 437:Generated_Source\PSoC4/cyfitter_cfg.c **** 	CY_SET_REG32((void *)(CYDEV_GPIO_PRT0_BASE), 0x00000020u);
 522              		.loc 1 437 0
 523 00ea 2032     		adds	r2, r2, #32
 524 00ec 104B     		ldr	r3, .L39+16
 525 00ee 1A60     		str	r2, [r3]
 438:Generated_Source\PSoC4/cyfitter_cfg.c **** 	CY_SET_REG32((void *)(CYREG_GPIO_PRT0_PC), 0x00031DB6u);
 526              		.loc 1 438 0
 527 00f0 104A     		ldr	r2, .L39+20
 528 00f2 114B     		ldr	r3, .L39+24
 529 00f4 1A60     		str	r2, [r3]
 439:Generated_Source\PSoC4/cyfitter_cfg.c **** 
 440:Generated_Source\PSoC4/cyfitter_cfg.c **** 	/* IOPINS0_1 Starting address: CYDEV_GPIO_PRT1_BASE */
 441:Generated_Source\PSoC4/cyfitter_cfg.c **** 	CY_SET_REG32((void *)(CYDEV_GPIO_PRT1_BASE), 0x00000002u);
 530              		.loc 1 441 0
 531 00f6 0223     		movs	r3, #2
 532 00f8 104A     		ldr	r2, .L39+28
 533 00fa 1360     		str	r3, [r2]
 442:Generated_Source\PSoC4/cyfitter_cfg.c **** 	CY_SET_REG32((void *)(CYREG_GPIO_PRT1_PC2), 0x00000002u);
 534              		.loc 1 442 0
 535 00fc 104A     		ldr	r2, .L39+32
 536 00fe 1360     		str	r3, [r2]
 443:Generated_Source\PSoC4/cyfitter_cfg.c **** 
 444:Generated_Source\PSoC4/cyfitter_cfg.c **** 	/* IOPINS0_2 Starting address: CYDEV_GPIO_PRT2_BASE */
 445:Generated_Source\PSoC4/cyfitter_cfg.c **** 	CY_SET_REG32((void *)(CYDEV_GPIO_PRT2_BASE), 0x000000BEu);
 537              		.loc 1 445 0
 538 0100 BC33     		adds	r3, r3, #188
 539 0102 104A     		ldr	r2, .L39+36
 540 0104 1360     		str	r3, [r2]
 446:Generated_Source\PSoC4/cyfitter_cfg.c **** 	CY_SET_REG32((void *)(CYREG_GPIO_PRT2_PC2), 0x000000BEu);
 541              		.loc 1 446 0
 542 0106 104A     		ldr	r2, .L39+40
 543 0108 1360     		str	r3, [r2]
 447:Generated_Source\PSoC4/cyfitter_cfg.c **** 
 448:Generated_Source\PSoC4/cyfitter_cfg.c **** 	/* IOPINS0_3 Starting address: CYDEV_GPIO_PRT3_BASE */
 449:Generated_Source\PSoC4/cyfitter_cfg.c **** 	CY_SET_REG32((void *)(CYDEV_GPIO_PRT3_BASE), 0x00000003u);
 544              		.loc 1 449 0
 545 010a 0322     		movs	r2, #3
 546 010c 0F4B     		ldr	r3, .L39+44
 547 010e 1A60     		str	r2, [r3]
 450:Generated_Source\PSoC4/cyfitter_cfg.c **** 	CY_SET_REG32((void *)(CYREG_GPIO_PRT3_PC), 0x00000024u);
 548              		.loc 1 450 0
 549 0110 2132     		adds	r2, r2, #33
 550 0112 0F4B     		ldr	r3, .L39+48
 551 0114 1A60     		str	r2, [r3]
 451:Generated_Source\PSoC4/cyfitter_cfg.c **** 
 452:Generated_Source\PSoC4/cyfitter_cfg.c **** 
 453:Generated_Source\PSoC4/cyfitter_cfg.c **** 	/* Setup clocks based on selections from Clock DWR */
 454:Generated_Source\PSoC4/cyfitter_cfg.c **** 	ClockSetup();
 552              		.loc 1 454 0
 553 0116 FFF773FF 		bl	ClockSetup
 554              	.LVL14:
 455:Generated_Source\PSoC4/cyfitter_cfg.c **** 
 456:Generated_Source\PSoC4/cyfitter_cfg.c **** 	/* Perform basic analog initialization to defaults */
 457:Generated_Source\PSoC4/cyfitter_cfg.c **** 	AnalogSetDefault();
ARM GAS  C:\Users\Crowling\AppData\Local\Temp\ccBFOglO.s 			page 19


 555              		.loc 1 457 0
 556 011a FFF7FEFF 		bl	AnalogSetDefault
 557              	.LVL15:
 458:Generated_Source\PSoC4/cyfitter_cfg.c **** 
 459:Generated_Source\PSoC4/cyfitter_cfg.c **** }
 558              		.loc 1 459 0
 559              		@ sp needed
 560 011e 10BD     		pop	{r4, pc}
 561              	.L40:
 562              		.align	2
 563              	.L39:
 564 0120 EE009900 		.word	10027246
 565 0124 00000240 		.word	1073872896
 566 0128 00030240 		.word	1073873664
 567 012c 04013F40 		.word	1077870852
 568 0130 00000440 		.word	1074003968
 569 0134 B61D0300 		.word	204214
 570 0138 08000440 		.word	1074003976
 571 013c 00010440 		.word	1074004224
 572 0140 18010440 		.word	1074004248
 573 0144 00020440 		.word	1074004480
 574 0148 18020440 		.word	1074004504
 575 014c 00030440 		.word	1074004736
 576 0150 08030440 		.word	1074004744
 577              		.cfi_endproc
 578              	.LFE11:
 579              		.size	cyfitter_cfg, .-cyfitter_cfg
 580              		.text
 581              	.Letext0:
 582              		.file 2 "Generated_Source\\PSoC4\\cytypes.h"
 583              		.file 3 "Generated_Source\\PSoC4\\CyLib.h"
 584              		.file 4 "Generated_Source\\PSoC4\\CyLFClk.h"
 585              		.section	.debug_info,"",%progbits
 586              	.Ldebug_info0:
 587 0000 55020000 		.4byte	0x255
 588 0004 0400     		.2byte	0x4
 589 0006 00000000 		.4byte	.Ldebug_abbrev0
 590 000a 04       		.byte	0x4
 591 000b 01       		.uleb128 0x1
 592 000c DC010000 		.4byte	.LASF31
 593 0010 0C       		.byte	0xc
 594 0011 7A020000 		.4byte	.LASF32
 595 0015 FE000000 		.4byte	.LASF33
 596 0019 00000000 		.4byte	.Ldebug_ranges0+0
 597 001d 00000000 		.4byte	0
 598 0021 00000000 		.4byte	.Ldebug_line0
 599 0025 02       		.uleb128 0x2
 600 0026 04       		.byte	0x4
 601 0027 05       		.byte	0x5
 602 0028 696E7400 		.ascii	"int\000"
 603 002c 03       		.uleb128 0x3
 604 002d 04       		.byte	0x4
 605 002e 07       		.byte	0x7
 606 002f F1000000 		.4byte	.LASF0
 607 0033 03       		.uleb128 0x3
 608 0034 08       		.byte	0x8
 609 0035 05       		.byte	0x5
ARM GAS  C:\Users\Crowling\AppData\Local\Temp\ccBFOglO.s 			page 20


 610 0036 82010000 		.4byte	.LASF1
 611 003a 03       		.uleb128 0x3
 612 003b 08       		.byte	0x8
 613 003c 04       		.byte	0x4
 614 003d D0010000 		.4byte	.LASF2
 615 0041 03       		.uleb128 0x3
 616 0042 01       		.byte	0x1
 617 0043 06       		.byte	0x6
 618 0044 6E020000 		.4byte	.LASF3
 619 0048 03       		.uleb128 0x3
 620 0049 01       		.byte	0x1
 621 004a 08       		.byte	0x8
 622 004b 8E000000 		.4byte	.LASF4
 623 004f 03       		.uleb128 0x3
 624 0050 02       		.byte	0x2
 625 0051 05       		.byte	0x5
 626 0052 9D010000 		.4byte	.LASF5
 627 0056 03       		.uleb128 0x3
 628 0057 02       		.byte	0x2
 629 0058 07       		.byte	0x7
 630 0059 68000000 		.4byte	.LASF6
 631 005d 03       		.uleb128 0x3
 632 005e 04       		.byte	0x4
 633 005f 05       		.byte	0x5
 634 0060 C7010000 		.4byte	.LASF7
 635 0064 03       		.uleb128 0x3
 636 0065 04       		.byte	0x4
 637 0066 07       		.byte	0x7
 638 0067 9C000000 		.4byte	.LASF8
 639 006b 03       		.uleb128 0x3
 640 006c 08       		.byte	0x8
 641 006d 07       		.byte	0x7
 642 006e 62010000 		.4byte	.LASF9
 643 0072 03       		.uleb128 0x3
 644 0073 04       		.byte	0x4
 645 0074 07       		.byte	0x7
 646 0075 79010000 		.4byte	.LASF10
 647 0079 03       		.uleb128 0x3
 648 007a 01       		.byte	0x1
 649 007b 08       		.byte	0x8
 650 007c 90010000 		.4byte	.LASF11
 651 0080 04       		.uleb128 0x4
 652 0081 AE000000 		.4byte	.LASF12
 653 0085 02       		.byte	0x2
 654 0086 FC01     		.2byte	0x1fc
 655 0088 48000000 		.4byte	0x48
 656 008c 04       		.uleb128 0x4
 657 008d EA000000 		.4byte	.LASF13
 658 0091 02       		.byte	0x2
 659 0092 FE01     		.2byte	0x1fe
 660 0094 64000000 		.4byte	0x64
 661 0098 03       		.uleb128 0x3
 662 0099 04       		.byte	0x4
 663 009a 04       		.byte	0x4
 664 009b 88000000 		.4byte	.LASF14
 665 009f 03       		.uleb128 0x3
 666 00a0 08       		.byte	0x8
ARM GAS  C:\Users\Crowling\AppData\Local\Temp\ccBFOglO.s 			page 21


 667 00a1 04       		.byte	0x4
 668 00a2 D7000000 		.4byte	.LASF15
 669 00a6 04       		.uleb128 0x4
 670 00a7 00000000 		.4byte	.LASF16
 671 00ab 02       		.byte	0x2
 672 00ac A802     		.2byte	0x2a8
 673 00ae B2000000 		.4byte	0xb2
 674 00b2 05       		.uleb128 0x5
 675 00b3 8C000000 		.4byte	0x8c
 676 00b7 06       		.uleb128 0x6
 677 00b8 5D000000 		.4byte	.LASF17
 678 00bc 01       		.byte	0x1
 679 00bd AA       		.byte	0xaa
 680 00be 00000000 		.4byte	.LFB4
 681 00c2 D4000000 		.4byte	.LFE4-.LFB4
 682 00c6 01       		.uleb128 0x1
 683 00c7 9C       		.byte	0x9c
 684 00c8 15010000 		.4byte	0x115
 685 00cc 07       		.uleb128 0x7
 686 00cd 0E000000 		.4byte	.LVL0
 687 00d1 2C020000 		.4byte	0x22c
 688 00d5 DF000000 		.4byte	0xdf
 689 00d9 08       		.uleb128 0x8
 690 00da 01       		.uleb128 0x1
 691 00db 50       		.byte	0x50
 692 00dc 01       		.uleb128 0x1
 693 00dd 48       		.byte	0x48
 694 00de 00       		.byte	0
 695 00df 07       		.uleb128 0x7
 696 00e0 6E000000 		.4byte	.LVL1
 697 00e4 37020000 		.4byte	0x237
 698 00e8 F2000000 		.4byte	0xf2
 699 00ec 08       		.uleb128 0x8
 700 00ed 01       		.uleb128 0x1
 701 00ee 50       		.byte	0x50
 702 00ef 01       		.uleb128 0x1
 703 00f0 3B       		.byte	0x3b
 704 00f1 00       		.byte	0
 705 00f2 07       		.uleb128 0x7
 706 00f3 74000000 		.4byte	.LVL2
 707 00f7 42020000 		.4byte	0x242
 708 00fb 05010000 		.4byte	0x105
 709 00ff 08       		.uleb128 0x8
 710 0100 01       		.uleb128 0x1
 711 0101 50       		.byte	0x50
 712 0102 01       		.uleb128 0x1
 713 0103 3B       		.byte	0x3b
 714 0104 00       		.byte	0
 715 0105 09       		.uleb128 0x9
 716 0106 80000000 		.4byte	.LVL3
 717 010a 4D020000 		.4byte	0x24d
 718 010e 08       		.uleb128 0x8
 719 010f 01       		.uleb128 0x1
 720 0110 50       		.byte	0x50
 721 0111 01       		.uleb128 0x1
 722 0112 30       		.byte	0x30
 723 0113 00       		.byte	0
ARM GAS  C:\Users\Crowling\AppData\Local\Temp\ccBFOglO.s 			page 22


 724 0114 00       		.byte	0
 725 0115 0A       		.uleb128 0xa
 726 0116 C1000000 		.4byte	.LASF19
 727 011a 01       		.byte	0x1
 728 011b 0B01     		.2byte	0x10b
 729 011d 00000000 		.4byte	.LFB6
 730 0121 20000000 		.4byte	.LFE6-.LFB6
 731 0125 01       		.uleb128 0x1
 732 0126 9C       		.byte	0x9c
 733 0127 4A010000 		.4byte	0x14a
 734 012b 0B       		.uleb128 0xb
 735 012c 95010000 		.4byte	.LASF21
 736 0130 01       		.byte	0x1
 737 0131 0B01     		.2byte	0x10b
 738 0133 80000000 		.4byte	0x80
 739 0137 01       		.uleb128 0x1
 740 0138 50       		.byte	0x50
 741 0139 0C       		.uleb128 0xc
 742 013a A0020000 		.4byte	.LASF34
 743 013e 01       		.byte	0x1
 744 013f 0D01     		.2byte	0x10d
 745 0141 8C000000 		.4byte	0x8c
 746 0145 00000000 		.4byte	.LLST0
 747 0149 00       		.byte	0
 748 014a 06       		.uleb128 0x6
 749 014b 0E000000 		.4byte	.LASF18
 750 014f 01       		.byte	0x1
 751 0150 E9       		.byte	0xe9
 752 0151 00000000 		.4byte	.LFB5
 753 0155 90000000 		.4byte	.LFE5-.LFB5
 754 0159 01       		.uleb128 0x1
 755 015a 9C       		.byte	0x9c
 756 015b 6F010000 		.4byte	0x16f
 757 015f 09       		.uleb128 0x9
 758 0160 52000000 		.4byte	.LVL9
 759 0164 15010000 		.4byte	0x115
 760 0168 08       		.uleb128 0x8
 761 0169 01       		.uleb128 0x1
 762 016a 50       		.byte	0x50
 763 016b 01       		.uleb128 0x1
 764 016c 31       		.byte	0x31
 765 016d 00       		.byte	0
 766 016e 00       		.byte	0
 767 016f 0A       		.uleb128 0xa
 768 0170 52000000 		.4byte	.LASF20
 769 0174 01       		.byte	0x1
 770 0175 2801     		.2byte	0x128
 771 0177 00000000 		.4byte	.LFB7
 772 017b 20000000 		.4byte	.LFE7-.LFB7
 773 017f 01       		.uleb128 0x1
 774 0180 9C       		.byte	0x9c
 775 0181 94010000 		.4byte	0x194
 776 0185 0B       		.uleb128 0xb
 777 0186 06000000 		.4byte	.LASF22
 778 018a 01       		.byte	0x1
 779 018b 2801     		.2byte	0x128
 780 018d 80000000 		.4byte	0x80
ARM GAS  C:\Users\Crowling\AppData\Local\Temp\ccBFOglO.s 			page 23


 781 0191 01       		.uleb128 0x1
 782 0192 50       		.byte	0x50
 783 0193 00       		.byte	0
 784 0194 0A       		.uleb128 0xa
 785 0195 7B000000 		.4byte	.LASF23
 786 0199 01       		.byte	0x1
 787 019a 4401     		.2byte	0x144
 788 019c 00000000 		.4byte	.LFB8
 789 01a0 20000000 		.4byte	.LFE8-.LFB8
 790 01a4 01       		.uleb128 0x1
 791 01a5 9C       		.byte	0x9c
 792 01a6 B9010000 		.4byte	0x1b9
 793 01aa 0B       		.uleb128 0xb
 794 01ab 06000000 		.4byte	.LASF22
 795 01af 01       		.byte	0x1
 796 01b0 4401     		.2byte	0x144
 797 01b2 80000000 		.4byte	0x80
 798 01b6 01       		.uleb128 0x1
 799 01b7 50       		.byte	0x50
 800 01b8 00       		.byte	0
 801 01b9 0A       		.uleb128 0xa
 802 01ba BC010000 		.4byte	.LASF24
 803 01be 01       		.byte	0x1
 804 01bf 5F01     		.2byte	0x15f
 805 01c1 00000000 		.4byte	.LFB9
 806 01c5 34000000 		.4byte	.LFE9-.LFB9
 807 01c9 01       		.uleb128 0x1
 808 01ca 9C       		.byte	0x9c
 809 01cb DE010000 		.4byte	0x1de
 810 01cf 0B       		.uleb128 0xb
 811 01d0 06000000 		.4byte	.LASF22
 812 01d4 01       		.byte	0x1
 813 01d5 5F01     		.2byte	0x15f
 814 01d7 80000000 		.4byte	0x80
 815 01db 01       		.uleb128 0x1
 816 01dc 50       		.byte	0x50
 817 01dd 00       		.byte	0
 818 01de 0A       		.uleb128 0xa
 819 01df 36000000 		.4byte	.LASF25
 820 01e3 01       		.byte	0x1
 821 01e4 7F01     		.2byte	0x17f
 822 01e6 00000000 		.4byte	.LFB10
 823 01ea 34000000 		.4byte	.LFE10-.LFB10
 824 01ee 01       		.uleb128 0x1
 825 01ef 9C       		.byte	0x9c
 826 01f0 03020000 		.4byte	0x203
 827 01f4 0B       		.uleb128 0xb
 828 01f5 06000000 		.4byte	.LASF22
 829 01f9 01       		.byte	0x1
 830 01fa 7F01     		.2byte	0x17f
 831 01fc 80000000 		.4byte	0x80
 832 0200 01       		.uleb128 0x1
 833 0201 50       		.byte	0x50
 834 0202 00       		.byte	0
 835 0203 0A       		.uleb128 0xa
 836 0204 B4000000 		.4byte	.LASF26
 837 0208 01       		.byte	0x1
ARM GAS  C:\Users\Crowling\AppData\Local\Temp\ccBFOglO.s 			page 24


 838 0209 A401     		.2byte	0x1a4
 839 020b D4000000 		.4byte	.LFB11
 840 020f 80000000 		.4byte	.LFE11-.LFB11
 841 0213 01       		.uleb128 0x1
 842 0214 9C       		.byte	0x9c
 843 0215 2C020000 		.4byte	0x22c
 844 0219 0D       		.uleb128 0xd
 845 021a 1A010000 		.4byte	.LVL14
 846 021e B7000000 		.4byte	0xb7
 847 0222 0D       		.uleb128 0xd
 848 0223 1E010000 		.4byte	.LVL15
 849 0227 4A010000 		.4byte	0x14a
 850 022b 00       		.byte	0
 851 022c 0E       		.uleb128 0xe
 852 022d A7010000 		.4byte	.LASF27
 853 0231 A7010000 		.4byte	.LASF27
 854 0235 03       		.byte	0x3
 855 0236 6C       		.byte	0x6c
 856 0237 0E       		.uleb128 0xe
 857 0238 43000000 		.4byte	.LASF28
 858 023c 43000000 		.4byte	.LASF28
 859 0240 03       		.byte	0x3
 860 0241 D0       		.byte	0xd0
 861 0242 0E       		.uleb128 0xe
 862 0243 DE000000 		.4byte	.LASF29
 863 0247 DE000000 		.4byte	.LASF29
 864 024b 03       		.byte	0x3
 865 024c D6       		.byte	0xd6
 866 024d 0E       		.uleb128 0xe
 867 024e 1F000000 		.4byte	.LASF30
 868 0252 1F000000 		.4byte	.LASF30
 869 0256 04       		.byte	0x4
 870 0257 9F       		.byte	0x9f
 871 0258 00       		.byte	0
 872              		.section	.debug_abbrev,"",%progbits
 873              	.Ldebug_abbrev0:
 874 0000 01       		.uleb128 0x1
 875 0001 11       		.uleb128 0x11
 876 0002 01       		.byte	0x1
 877 0003 25       		.uleb128 0x25
 878 0004 0E       		.uleb128 0xe
 879 0005 13       		.uleb128 0x13
 880 0006 0B       		.uleb128 0xb
 881 0007 03       		.uleb128 0x3
 882 0008 0E       		.uleb128 0xe
 883 0009 1B       		.uleb128 0x1b
 884 000a 0E       		.uleb128 0xe
 885 000b 55       		.uleb128 0x55
 886 000c 17       		.uleb128 0x17
 887 000d 11       		.uleb128 0x11
 888 000e 01       		.uleb128 0x1
 889 000f 10       		.uleb128 0x10
 890 0010 17       		.uleb128 0x17
 891 0011 00       		.byte	0
 892 0012 00       		.byte	0
 893 0013 02       		.uleb128 0x2
 894 0014 24       		.uleb128 0x24
ARM GAS  C:\Users\Crowling\AppData\Local\Temp\ccBFOglO.s 			page 25


 895 0015 00       		.byte	0
 896 0016 0B       		.uleb128 0xb
 897 0017 0B       		.uleb128 0xb
 898 0018 3E       		.uleb128 0x3e
 899 0019 0B       		.uleb128 0xb
 900 001a 03       		.uleb128 0x3
 901 001b 08       		.uleb128 0x8
 902 001c 00       		.byte	0
 903 001d 00       		.byte	0
 904 001e 03       		.uleb128 0x3
 905 001f 24       		.uleb128 0x24
 906 0020 00       		.byte	0
 907 0021 0B       		.uleb128 0xb
 908 0022 0B       		.uleb128 0xb
 909 0023 3E       		.uleb128 0x3e
 910 0024 0B       		.uleb128 0xb
 911 0025 03       		.uleb128 0x3
 912 0026 0E       		.uleb128 0xe
 913 0027 00       		.byte	0
 914 0028 00       		.byte	0
 915 0029 04       		.uleb128 0x4
 916 002a 16       		.uleb128 0x16
 917 002b 00       		.byte	0
 918 002c 03       		.uleb128 0x3
 919 002d 0E       		.uleb128 0xe
 920 002e 3A       		.uleb128 0x3a
 921 002f 0B       		.uleb128 0xb
 922 0030 3B       		.uleb128 0x3b
 923 0031 05       		.uleb128 0x5
 924 0032 49       		.uleb128 0x49
 925 0033 13       		.uleb128 0x13
 926 0034 00       		.byte	0
 927 0035 00       		.byte	0
 928 0036 05       		.uleb128 0x5
 929 0037 35       		.uleb128 0x35
 930 0038 00       		.byte	0
 931 0039 49       		.uleb128 0x49
 932 003a 13       		.uleb128 0x13
 933 003b 00       		.byte	0
 934 003c 00       		.byte	0
 935 003d 06       		.uleb128 0x6
 936 003e 2E       		.uleb128 0x2e
 937 003f 01       		.byte	0x1
 938 0040 03       		.uleb128 0x3
 939 0041 0E       		.uleb128 0xe
 940 0042 3A       		.uleb128 0x3a
 941 0043 0B       		.uleb128 0xb
 942 0044 3B       		.uleb128 0x3b
 943 0045 0B       		.uleb128 0xb
 944 0046 27       		.uleb128 0x27
 945 0047 19       		.uleb128 0x19
 946 0048 11       		.uleb128 0x11
 947 0049 01       		.uleb128 0x1
 948 004a 12       		.uleb128 0x12
 949 004b 06       		.uleb128 0x6
 950 004c 40       		.uleb128 0x40
 951 004d 18       		.uleb128 0x18
ARM GAS  C:\Users\Crowling\AppData\Local\Temp\ccBFOglO.s 			page 26


 952 004e 9742     		.uleb128 0x2117
 953 0050 19       		.uleb128 0x19
 954 0051 01       		.uleb128 0x1
 955 0052 13       		.uleb128 0x13
 956 0053 00       		.byte	0
 957 0054 00       		.byte	0
 958 0055 07       		.uleb128 0x7
 959 0056 898201   		.uleb128 0x4109
 960 0059 01       		.byte	0x1
 961 005a 11       		.uleb128 0x11
 962 005b 01       		.uleb128 0x1
 963 005c 31       		.uleb128 0x31
 964 005d 13       		.uleb128 0x13
 965 005e 01       		.uleb128 0x1
 966 005f 13       		.uleb128 0x13
 967 0060 00       		.byte	0
 968 0061 00       		.byte	0
 969 0062 08       		.uleb128 0x8
 970 0063 8A8201   		.uleb128 0x410a
 971 0066 00       		.byte	0
 972 0067 02       		.uleb128 0x2
 973 0068 18       		.uleb128 0x18
 974 0069 9142     		.uleb128 0x2111
 975 006b 18       		.uleb128 0x18
 976 006c 00       		.byte	0
 977 006d 00       		.byte	0
 978 006e 09       		.uleb128 0x9
 979 006f 898201   		.uleb128 0x4109
 980 0072 01       		.byte	0x1
 981 0073 11       		.uleb128 0x11
 982 0074 01       		.uleb128 0x1
 983 0075 31       		.uleb128 0x31
 984 0076 13       		.uleb128 0x13
 985 0077 00       		.byte	0
 986 0078 00       		.byte	0
 987 0079 0A       		.uleb128 0xa
 988 007a 2E       		.uleb128 0x2e
 989 007b 01       		.byte	0x1
 990 007c 3F       		.uleb128 0x3f
 991 007d 19       		.uleb128 0x19
 992 007e 03       		.uleb128 0x3
 993 007f 0E       		.uleb128 0xe
 994 0080 3A       		.uleb128 0x3a
 995 0081 0B       		.uleb128 0xb
 996 0082 3B       		.uleb128 0x3b
 997 0083 05       		.uleb128 0x5
 998 0084 27       		.uleb128 0x27
 999 0085 19       		.uleb128 0x19
 1000 0086 11       		.uleb128 0x11
 1001 0087 01       		.uleb128 0x1
 1002 0088 12       		.uleb128 0x12
 1003 0089 06       		.uleb128 0x6
 1004 008a 40       		.uleb128 0x40
 1005 008b 18       		.uleb128 0x18
 1006 008c 9742     		.uleb128 0x2117
 1007 008e 19       		.uleb128 0x19
 1008 008f 01       		.uleb128 0x1
ARM GAS  C:\Users\Crowling\AppData\Local\Temp\ccBFOglO.s 			page 27


 1009 0090 13       		.uleb128 0x13
 1010 0091 00       		.byte	0
 1011 0092 00       		.byte	0
 1012 0093 0B       		.uleb128 0xb
 1013 0094 05       		.uleb128 0x5
 1014 0095 00       		.byte	0
 1015 0096 03       		.uleb128 0x3
 1016 0097 0E       		.uleb128 0xe
 1017 0098 3A       		.uleb128 0x3a
 1018 0099 0B       		.uleb128 0xb
 1019 009a 3B       		.uleb128 0x3b
 1020 009b 05       		.uleb128 0x5
 1021 009c 49       		.uleb128 0x49
 1022 009d 13       		.uleb128 0x13
 1023 009e 02       		.uleb128 0x2
 1024 009f 18       		.uleb128 0x18
 1025 00a0 00       		.byte	0
 1026 00a1 00       		.byte	0
 1027 00a2 0C       		.uleb128 0xc
 1028 00a3 34       		.uleb128 0x34
 1029 00a4 00       		.byte	0
 1030 00a5 03       		.uleb128 0x3
 1031 00a6 0E       		.uleb128 0xe
 1032 00a7 3A       		.uleb128 0x3a
 1033 00a8 0B       		.uleb128 0xb
 1034 00a9 3B       		.uleb128 0x3b
 1035 00aa 05       		.uleb128 0x5
 1036 00ab 49       		.uleb128 0x49
 1037 00ac 13       		.uleb128 0x13
 1038 00ad 02       		.uleb128 0x2
 1039 00ae 17       		.uleb128 0x17
 1040 00af 00       		.byte	0
 1041 00b0 00       		.byte	0
 1042 00b1 0D       		.uleb128 0xd
 1043 00b2 898201   		.uleb128 0x4109
 1044 00b5 00       		.byte	0
 1045 00b6 11       		.uleb128 0x11
 1046 00b7 01       		.uleb128 0x1
 1047 00b8 31       		.uleb128 0x31
 1048 00b9 13       		.uleb128 0x13
 1049 00ba 00       		.byte	0
 1050 00bb 00       		.byte	0
 1051 00bc 0E       		.uleb128 0xe
 1052 00bd 2E       		.uleb128 0x2e
 1053 00be 00       		.byte	0
 1054 00bf 3F       		.uleb128 0x3f
 1055 00c0 19       		.uleb128 0x19
 1056 00c1 3C       		.uleb128 0x3c
 1057 00c2 19       		.uleb128 0x19
 1058 00c3 6E       		.uleb128 0x6e
 1059 00c4 0E       		.uleb128 0xe
 1060 00c5 03       		.uleb128 0x3
 1061 00c6 0E       		.uleb128 0xe
 1062 00c7 3A       		.uleb128 0x3a
 1063 00c8 0B       		.uleb128 0xb
 1064 00c9 3B       		.uleb128 0x3b
 1065 00ca 0B       		.uleb128 0xb
ARM GAS  C:\Users\Crowling\AppData\Local\Temp\ccBFOglO.s 			page 28


 1066 00cb 00       		.byte	0
 1067 00cc 00       		.byte	0
 1068 00cd 00       		.byte	0
 1069              		.section	.debug_loc,"",%progbits
 1070              	.Ldebug_loc0:
 1071              	.LLST0:
 1072 0000 04000000 		.4byte	.LVL5
 1073 0004 12000000 		.4byte	.LVL7
 1074 0008 0100     		.2byte	0x1
 1075 000a 53       		.byte	0x53
 1076 000b 14000000 		.4byte	.LVL8
 1077 000f 20000000 		.4byte	.LFE6
 1078 0013 0100     		.2byte	0x1
 1079 0015 53       		.byte	0x53
 1080 0016 00000000 		.4byte	0
 1081 001a 00000000 		.4byte	0
 1082              		.section	.debug_aranges,"",%progbits
 1083 0000 54000000 		.4byte	0x54
 1084 0004 0200     		.2byte	0x2
 1085 0006 00000000 		.4byte	.Ldebug_info0
 1086 000a 04       		.byte	0x4
 1087 000b 00       		.byte	0
 1088 000c 0000     		.2byte	0
 1089 000e 0000     		.2byte	0
 1090 0010 00000000 		.4byte	.LFB4
 1091 0014 D4000000 		.4byte	.LFE4-.LFB4
 1092 0018 00000000 		.4byte	.LFB6
 1093 001c 20000000 		.4byte	.LFE6-.LFB6
 1094 0020 00000000 		.4byte	.LFB5
 1095 0024 90000000 		.4byte	.LFE5-.LFB5
 1096 0028 00000000 		.4byte	.LFB7
 1097 002c 20000000 		.4byte	.LFE7-.LFB7
 1098 0030 00000000 		.4byte	.LFB8
 1099 0034 20000000 		.4byte	.LFE8-.LFB8
 1100 0038 00000000 		.4byte	.LFB9
 1101 003c 34000000 		.4byte	.LFE9-.LFB9
 1102 0040 00000000 		.4byte	.LFB10
 1103 0044 34000000 		.4byte	.LFE10-.LFB10
 1104 0048 D4000000 		.4byte	.LFB11
 1105 004c 80000000 		.4byte	.LFE11-.LFB11
 1106 0050 00000000 		.4byte	0
 1107 0054 00000000 		.4byte	0
 1108              		.section	.debug_ranges,"",%progbits
 1109              	.Ldebug_ranges0:
 1110 0000 00000000 		.4byte	.LFB4
 1111 0004 D4000000 		.4byte	.LFE4
 1112 0008 00000000 		.4byte	.LFB6
 1113 000c 20000000 		.4byte	.LFE6
 1114 0010 00000000 		.4byte	.LFB5
 1115 0014 90000000 		.4byte	.LFE5
 1116 0018 00000000 		.4byte	.LFB7
 1117 001c 20000000 		.4byte	.LFE7
 1118 0020 00000000 		.4byte	.LFB8
 1119 0024 20000000 		.4byte	.LFE8
 1120 0028 00000000 		.4byte	.LFB9
 1121 002c 34000000 		.4byte	.LFE9
 1122 0030 00000000 		.4byte	.LFB10
ARM GAS  C:\Users\Crowling\AppData\Local\Temp\ccBFOglO.s 			page 29


 1123 0034 34000000 		.4byte	.LFE10
 1124 0038 D4000000 		.4byte	.LFB11
 1125 003c 54010000 		.4byte	.LFE11
 1126 0040 00000000 		.4byte	0
 1127 0044 00000000 		.4byte	0
 1128              		.section	.debug_line,"",%progbits
 1129              	.Ldebug_line0:
 1130 0000 31010000 		.section	.debug_str,"MS",%progbits,1
 1130      02006100 
 1130      00000201 
 1130      FB0E0D00 
 1130      01010101 
 1131              	.LASF16:
 1132 0000 72656733 		.ascii	"reg32\000"
 1132      3200
 1133              	.LASF22:
 1134 0006 6368616E 		.ascii	"channel\000"
 1134      6E656C00 
 1135              	.LASF18:
 1136 000e 416E616C 		.ascii	"AnalogSetDefault\000"
 1136      6F675365 
 1136      74446566 
 1136      61756C74 
 1136      00
 1137              	.LASF30:
 1138 001f 43795379 		.ascii	"CySysClkSetTimerSource\000"
 1138      73436C6B 
 1138      53657454 
 1138      696D6572 
 1138      536F7572 
 1139              	.LASF25:
 1140 0036 414D7578 		.ascii	"AMux_1_Unset\000"
 1140      5F315F55 
 1140      6E736574 
 1140      00
 1141              	.LASF28:
 1142 0043 4379496E 		.ascii	"CyIntSetVector\000"
 1142      74536574 
 1142      56656374 
 1142      6F7200
 1143              	.LASF20:
 1144 0052 414D7578 		.ascii	"AMux_2_Set\000"
 1144      5F325F53 
 1144      657400
 1145              	.LASF17:
 1146 005d 436C6F63 		.ascii	"ClockSetup\000"
 1146      6B536574 
 1146      757000
 1147              	.LASF6:
 1148 0068 73686F72 		.ascii	"short unsigned int\000"
 1148      7420756E 
 1148      7369676E 
 1148      65642069 
 1148      6E7400
 1149              	.LASF23:
 1150 007b 414D7578 		.ascii	"AMux_2_Unset\000"
 1150      5F325F55 
ARM GAS  C:\Users\Crowling\AppData\Local\Temp\ccBFOglO.s 			page 30


 1150      6E736574 
 1150      00
 1151              	.LASF14:
 1152 0088 666C6F61 		.ascii	"float\000"
 1152      7400
 1153              	.LASF4:
 1154 008e 756E7369 		.ascii	"unsigned char\000"
 1154      676E6564 
 1154      20636861 
 1154      7200
 1155              	.LASF8:
 1156 009c 6C6F6E67 		.ascii	"long unsigned int\000"
 1156      20756E73 
 1156      69676E65 
 1156      6420696E 
 1156      7400
 1157              	.LASF12:
 1158 00ae 75696E74 		.ascii	"uint8\000"
 1158      3800
 1159              	.LASF26:
 1160 00b4 63796669 		.ascii	"cyfitter_cfg\000"
 1160      74746572 
 1160      5F636667 
 1160      00
 1161              	.LASF19:
 1162 00c1 53657441 		.ascii	"SetAnalogRoutingPumps\000"
 1162      6E616C6F 
 1162      67526F75 
 1162      74696E67 
 1162      50756D70 
 1163              	.LASF15:
 1164 00d7 646F7562 		.ascii	"double\000"
 1164      6C6500
 1165              	.LASF29:
 1166 00de 4379496E 		.ascii	"CyIntEnable\000"
 1166      74456E61 
 1166      626C6500 
 1167              	.LASF13:
 1168 00ea 75696E74 		.ascii	"uint32\000"
 1168      333200
 1169              	.LASF0:
 1170 00f1 756E7369 		.ascii	"unsigned int\000"
 1170      676E6564 
 1170      20696E74 
 1170      00
 1171              	.LASF33:
 1172 00fe 433A5C55 		.ascii	"C:\\Users\\Crowling\\OneDrive\\Documents\\GitHub\\L"
 1172      73657273 
 1172      5C43726F 
 1172      776C696E 
 1172      675C4F6E 
 1173 012b 692D4365 		.ascii	"i-CellTesting_Script\\Internal_Main\\Internal_Main."
 1173      6C6C5465 
 1173      7374696E 
 1173      675F5363 
 1173      72697074 
 1174 015c 63796473 		.ascii	"cydsn\000"
ARM GAS  C:\Users\Crowling\AppData\Local\Temp\ccBFOglO.s 			page 31


 1174      6E00
 1175              	.LASF9:
 1176 0162 6C6F6E67 		.ascii	"long long unsigned int\000"
 1176      206C6F6E 
 1176      6720756E 
 1176      7369676E 
 1176      65642069 
 1177              	.LASF10:
 1178 0179 73697A65 		.ascii	"sizetype\000"
 1178      74797065 
 1178      00
 1179              	.LASF1:
 1180 0182 6C6F6E67 		.ascii	"long long int\000"
 1180      206C6F6E 
 1180      6720696E 
 1180      7400
 1181              	.LASF11:
 1182 0190 63686172 		.ascii	"char\000"
 1182      00
 1183              	.LASF21:
 1184 0195 656E6162 		.ascii	"enabled\000"
 1184      6C656400 
 1185              	.LASF5:
 1186 019d 73686F72 		.ascii	"short int\000"
 1186      7420696E 
 1186      7400
 1187              	.LASF27:
 1188 01a7 43795379 		.ascii	"CySysClkWriteImoFreq\000"
 1188      73436C6B 
 1188      57726974 
 1188      65496D6F 
 1188      46726571 
 1189              	.LASF24:
 1190 01bc 414D7578 		.ascii	"AMux_1_Set\000"
 1190      5F315F53 
 1190      657400
 1191              	.LASF7:
 1192 01c7 6C6F6E67 		.ascii	"long int\000"
 1192      20696E74 
 1192      00
 1193              	.LASF2:
 1194 01d0 6C6F6E67 		.ascii	"long double\000"
 1194      20646F75 
 1194      626C6500 
 1195              	.LASF31:
 1196 01dc 474E5520 		.ascii	"GNU C11 5.4.1 20160609 (release) [ARM/embedded-5-br"
 1196      43313120 
 1196      352E342E 
 1196      31203230 
 1196      31363036 
 1197 020f 616E6368 		.ascii	"anch revision 237715] -mcpu=cortex-m0plus -mthumb -"
 1197      20726576 
 1197      6973696F 
 1197      6E203233 
 1197      37373135 
 1198 0242 67202D4F 		.ascii	"g -Og -ffunction-sections -ffat-lto-objects\000"
 1198      67202D66 
ARM GAS  C:\Users\Crowling\AppData\Local\Temp\ccBFOglO.s 			page 32


 1198      66756E63 
 1198      74696F6E 
 1198      2D736563 
 1199              	.LASF3:
 1200 026e 7369676E 		.ascii	"signed char\000"
 1200      65642063 
 1200      68617200 
 1201              	.LASF32:
 1202 027a 47656E65 		.ascii	"Generated_Source\\PSoC4\\cyfitter_cfg.c\000"
 1202      72617465 
 1202      645F536F 
 1202      75726365 
 1202      5C50536F 
 1203              	.LASF34:
 1204 02a0 72656756 		.ascii	"regValue\000"
 1204      616C7565 
 1204      00
 1205              		.ident	"GCC: (GNU Tools for ARM Embedded Processors) 5.4.1 20160609 (release) [ARM/embedded-5-bran
