ARM GAS  C:\Users\Crowling\AppData\Local\Temp\ccd1UIpA.s 			page 1


   1              		.syntax unified
   2              		.cpu cortex-m0plus
   3              		.fpu softvfp
   4              		.eabi_attribute 20, 1
   5              		.eabi_attribute 21, 1
   6              		.eabi_attribute 23, 3
   7              		.eabi_attribute 24, 1
   8              		.eabi_attribute 25, 1
   9              		.eabi_attribute 26, 1
  10              		.eabi_attribute 30, 1
  11              		.eabi_attribute 34, 0
  12              		.eabi_attribute 18, 4
  13              		.thumb
  14              		.syntax unified
  15              		.file	"main.c"
  16              		.text
  17              	.Ltext0:
  18              		.cfi_sections	.debug_frame
  19              		.section	.text.CellTestStart,"ax",%progbits
  20              		.align	2
  21              		.global	CellTestStart
  22              		.code	16
  23              		.thumb_func
  24              		.type	CellTestStart, %function
  25              	CellTestStart:
  26              	.LFB34:
  27              		.file 1 "main.c"
   1:main.c        **** 
   2:main.c        **** #include "project.h"
   3:main.c        **** #include <stdio.h>
   4:main.c        **** #include <stdlib.h>
   5:main.c        **** 
   6:main.c        **** #define NUM_R_THERMISTORS 5 // excluding the thermistor at Position 1
   7:main.c        **** #define NUM_BAT_THERMISTORS 6 // excluding the thermistor at Position 1
   8:main.c        **** #define SHUNT_CONDUCTANCE 1.2 
   9:main.c        **** #define AMP_GAIN 21.3
  10:main.c        **** #define V_REF 40.0
  11:main.c        **** 
  12:main.c        **** void CellTestStart(){
  28              		.loc 1 12 0
  29              		.cfi_startproc
  30              		@ args = 0, pretend = 0, frame = 0
  31              		@ frame_needed = 0, uses_anonymous_args = 0
  32 0000 10B5     		push	{r4, lr}
  33              		.cfi_def_cfa_offset 8
  34              		.cfi_offset 4, -8
  35              		.cfi_offset 14, -4
  13:main.c        ****     AMux_1_Start();
  36              		.loc 1 13 0
  37 0002 FFF7FEFF 		bl	AMux_1_Start
  38              	.LVL0:
  14:main.c        ****     AMux_2_Start();
  39              		.loc 1 14 0
  40 0006 FFF7FEFF 		bl	AMux_2_Start
  41              	.LVL1:
  15:main.c        ****     Opamp_1_Start();
  42              		.loc 1 15 0
ARM GAS  C:\Users\Crowling\AppData\Local\Temp\ccd1UIpA.s 			page 2


  43 000a FFF7FEFF 		bl	Opamp_1_Start
  44              	.LVL2:
  16:main.c        ****     Opamp_2_Start();
  45              		.loc 1 16 0
  46 000e FFF7FEFF 		bl	Opamp_2_Start
  47              	.LVL3:
  17:main.c        ****     ADC_1_Start();
  48              		.loc 1 17 0
  49 0012 FFF7FEFF 		bl	ADC_1_Start
  50              	.LVL4:
  18:main.c        ****     UART_1_Start();
  51              		.loc 1 18 0
  52 0016 FFF7FEFF 		bl	UART_1_Start
  53              	.LVL5:
  19:main.c        ****     BLUE_LED_Write(0);
  54              		.loc 1 19 0
  55 001a 0020     		movs	r0, #0
  56 001c FFF7FEFF 		bl	BLUE_LED_Write
  57              	.LVL6:
  20:main.c        ****     RELAY_EN_Write(1);
  58              		.loc 1 20 0
  59 0020 0120     		movs	r0, #1
  60 0022 FFF7FEFF 		bl	RELAY_EN_Write
  61              	.LVL7:
  21:main.c        **** }
  62              		.loc 1 21 0
  63              		@ sp needed
  64 0026 10BD     		pop	{r4, pc}
  65              		.cfi_endproc
  66              	.LFE34:
  67              		.size	CellTestStart, .-CellTestStart
  68              		.section	.text.CellTestStop,"ax",%progbits
  69              		.align	2
  70              		.global	CellTestStop
  71              		.code	16
  72              		.thumb_func
  73              		.type	CellTestStop, %function
  74              	CellTestStop:
  75              	.LFB35:
  22:main.c        **** 
  23:main.c        **** void CellTestStop(){
  76              		.loc 1 23 0
  77              		.cfi_startproc
  78              		@ args = 0, pretend = 0, frame = 0
  79              		@ frame_needed = 0, uses_anonymous_args = 0
  80 0000 10B5     		push	{r4, lr}
  81              		.cfi_def_cfa_offset 8
  82              		.cfi_offset 4, -8
  83              		.cfi_offset 14, -4
  24:main.c        ****     PVref_1_Stop();
  84              		.loc 1 24 0
  85 0002 FFF7FEFF 		bl	PVref_1_Stop
  86              	.LVL8:
  25:main.c        **** }
  87              		.loc 1 25 0
  88              		@ sp needed
  89 0006 10BD     		pop	{r4, pc}
ARM GAS  C:\Users\Crowling\AppData\Local\Temp\ccd1UIpA.s 			page 3


  90              		.cfi_endproc
  91              	.LFE35:
  92              		.size	CellTestStop, .-CellTestStop
  93              		.section	.text.FilterSignal,"ax",%progbits
  94              		.align	2
  95              		.global	FilterSignal
  96              		.code	16
  97              		.thumb_func
  98              		.type	FilterSignal, %function
  99              	FilterSignal:
 100              	.LFB36:
  26:main.c        **** int32 FilterSignal(int32 ADCSample){
 101              		.loc 1 26 0
 102              		.cfi_startproc
 103              		@ args = 0, pretend = 0, frame = 0
 104              		@ frame_needed = 0, uses_anonymous_args = 0
 105              		@ link register save eliminated.
 106              	.LVL9:
  27:main.c        ****     
  28:main.c        ****     // MOVING AVERAGE
  29:main.c        **** 	static int32 filteredValue = {0};
  30:main.c        **** 	
  31:main.c        **** 	/* Filtered value rounded-off to 20-bits */
  32:main.c        **** 	int32 filValueRounded;
  33:main.c        **** 	
  34:main.c        **** 	/* Left shift input by MAX_FILTER_COEFF_SHIFT to allow divisions up to MAX_FILTER_COEFF_SHIFT */
  35:main.c        **** 	ADCSample <<= 8;
 107              		.loc 1 35 0
 108 0000 0002     		lsls	r0, r0, #8
 109              	.LVL10:
  36:main.c        **** 	   
  37:main.c        **** 	/* Pass the filter input as it is for fast changes in input  - if the least significant bits chang
  38:main.c        ****     if((ADCSample > (filteredValue + (100*256))) || (ADCSample < (filteredValue - (100*256)))){
 110              		.loc 1 38 0
 111 0002 0D4B     		ldr	r3, .L7
 112 0004 1B68     		ldr	r3, [r3]
 113 0006 C822     		movs	r2, #200
 114 0008 D201     		lsls	r2, r2, #7
 115 000a 9A18     		adds	r2, r3, r2
 116 000c 9042     		cmp	r0, r2
 117 000e 03DC     		bgt	.L4
 118              		.loc 1 38 0 is_stmt 0 discriminator 1
 119 0010 0A4A     		ldr	r2, .L7+4
 120 0012 9A18     		adds	r2, r3, r2
 121 0014 9042     		cmp	r0, r2
 122 0016 02DA     		bge	.L5
 123              	.L4:
  39:main.c        ****         filteredValue = ADCSample;     
 124              		.loc 1 39 0 is_stmt 1
 125 0018 074B     		ldr	r3, .L7
 126 001a 1860     		str	r0, [r3]
 127 001c 04E0     		b	.L6
 128              	.L5:
  40:main.c        ****     }
  41:main.c        ****     
  42:main.c        ****     /* If not the first sample then based on filter coefficient, filter the input signal */
  43:main.c        ****     else{
ARM GAS  C:\Users\Crowling\AppData\Local\Temp\ccd1UIpA.s 			page 4


  44:main.c        ****         /* IIR filter */
  45:main.c        **** 		filteredValue = filteredValue + ((ADCSample - filteredValue) >> 4);		 
 129              		.loc 1 45 0
 130 001e C01A     		subs	r0, r0, r3
 131              	.LVL11:
 132 0020 0011     		asrs	r0, r0, #4
 133 0022 1818     		adds	r0, r3, r0
 134 0024 044B     		ldr	r3, .L7
 135 0026 1860     		str	r0, [r3]
 136              	.L6:
  46:main.c        **** 	}
  47:main.c        ****     
  48:main.c        **** 	/* Compensate filter result for  left shift of 8 and round off */
  49:main.c        **** 	filValueRounded = (filteredValue >> 8) + ((filteredValue & 0x00000080) >> 7);
 137              		.loc 1 49 0
 138 0028 034B     		ldr	r3, .L7
 139 002a 1B68     		ldr	r3, [r3]
 140 002c 1A12     		asrs	r2, r3, #8
 141 002e DB11     		asrs	r3, r3, #7
 142 0030 0120     		movs	r0, #1
 143 0032 0340     		ands	r3, r0
 144 0034 D018     		adds	r0, r2, r3
 145              	.LVL12:
  50:main.c        ****     return filValueRounded;
  51:main.c        **** }
 146              		.loc 1 51 0
 147              		@ sp needed
 148 0036 7047     		bx	lr
 149              	.L8:
 150              		.align	2
 151              	.L7:
 152 0038 00000000 		.word	.LANCHOR0
 153 003c 009CFFFF 		.word	-25600
 154              		.cfi_endproc
 155              	.LFE36:
 156              		.size	FilterSignal, .-FilterSignal
 157              		.section	.text.PointerTest,"ax",%progbits
 158              		.align	2
 159              		.global	PointerTest
 160              		.code	16
 161              		.thumb_func
 162              		.type	PointerTest, %function
 163              	PointerTest:
 164              	.LFB37:
  52:main.c        **** int32 PointerTest(int32 array){
 165              		.loc 1 52 0
 166              		.cfi_startproc
 167              		@ args = 0, pretend = 0, frame = 0
 168              		@ frame_needed = 0, uses_anonymous_args = 0
 169              	.LVL13:
 170 0000 10B5     		push	{r4, lr}
 171              		.cfi_def_cfa_offset 8
 172              		.cfi_offset 4, -8
 173              		.cfi_offset 14, -4
  53:main.c        ****     array <<= 8;
 174              		.loc 1 53 0
 175 0002 0402     		lsls	r4, r0, #8
ARM GAS  C:\Users\Crowling\AppData\Local\Temp\ccd1UIpA.s 			page 5


 176              	.LVL14:
  54:main.c        ****     static int32 pointer = {0};
  55:main.c        ****     int32 result;
  56:main.c        ****     if (array > pointer){
 177              		.loc 1 56 0
 178 0004 114B     		ldr	r3, .L12
 179 0006 5968     		ldr	r1, [r3, #4]
 180 0008 8C42     		cmp	r4, r1
 181 000a 09DD     		ble	.L10
  57:main.c        ****         printf("\r\n pointer %ld \r\n", pointer);
 182              		.loc 1 57 0
 183 000c 1048     		ldr	r0, .L12+4
 184 000e FFF7FEFF 		bl	printf
 185              	.LVL15:
  58:main.c        ****         printf("\r\n array %ld\r\n", array);
 186              		.loc 1 58 0
 187 0012 2100     		movs	r1, r4
 188 0014 0F48     		ldr	r0, .L12+8
 189 0016 FFF7FEFF 		bl	printf
 190              	.LVL16:
  59:main.c        ****         pointer = array;
 191              		.loc 1 59 0
 192 001a 0C4B     		ldr	r3, .L12
 193 001c 5C60     		str	r4, [r3, #4]
 194 001e 0CE0     		b	.L11
 195              	.L10:
  60:main.c        ****     }
  61:main.c        ****     
  62:main.c        ****     else{
  63:main.c        ****         printf("\r\n POINTER %ld\r\n", pointer);
 196              		.loc 1 63 0
 197 0020 0D48     		ldr	r0, .L12+12
 198 0022 FFF7FEFF 		bl	printf
 199              	.LVL17:
  64:main.c        ****         printf("\r\n array %ld\r\n", array);
 200              		.loc 1 64 0
 201 0026 2100     		movs	r1, r4
 202 0028 0A48     		ldr	r0, .L12+8
 203 002a FFF7FEFF 		bl	printf
 204              	.LVL18:
  65:main.c        ****         pointer = pointer + ((array - pointer ) >> 4);
 205              		.loc 1 65 0
 206 002e 074B     		ldr	r3, .L12
 207 0030 5868     		ldr	r0, [r3, #4]
 208 0032 241A     		subs	r4, r4, r0
 209              	.LVL19:
 210 0034 2411     		asrs	r4, r4, #4
 211 0036 0419     		adds	r4, r0, r4
 212 0038 5C60     		str	r4, [r3, #4]
 213              	.L11:
  66:main.c        ****     }
  67:main.c        ****     result = (pointer >> 8) + ((pointer & 0x00000080) >> 7);
 214              		.loc 1 67 0
 215 003a 044B     		ldr	r3, .L12
 216 003c 5B68     		ldr	r3, [r3, #4]
 217 003e 1A12     		asrs	r2, r3, #8
 218 0040 DB11     		asrs	r3, r3, #7
ARM GAS  C:\Users\Crowling\AppData\Local\Temp\ccd1UIpA.s 			page 6


 219 0042 0120     		movs	r0, #1
 220 0044 0340     		ands	r3, r0
 221 0046 D018     		adds	r0, r2, r3
 222              	.LVL20:
  68:main.c        ****     return result;      
  69:main.c        **** }
 223              		.loc 1 69 0
 224              		@ sp needed
 225 0048 10BD     		pop	{r4, pc}
 226              	.L13:
 227 004a C046     		.align	2
 228              	.L12:
 229 004c 00000000 		.word	.LANCHOR0
 230 0050 00000000 		.word	.LC2
 231 0054 14000000 		.word	.LC4
 232 0058 24000000 		.word	.LC6
 233              		.cfi_endproc
 234              	.LFE37:
 235              		.size	PointerTest, .-PointerTest
 236              		.global	__aeabi_i2f
 237              		.global	__aeabi_f2d
 238              		.global	__aeabi_dmul
 239              		.global	__aeabi_ddiv
 240              		.global	__aeabi_d2f
 241              		.section	.text.main,"ax",%progbits
 242              		.align	2
 243              		.global	main
 244              		.code	16
 245              		.thumb_func
 246              		.type	main, %function
 247              	main:
 248              	.LFB38:
  70:main.c        **** 
  71:main.c        **** int main(void)
  72:main.c        **** {
 249              		.loc 1 72 0
 250              		.cfi_startproc
 251              		@ args = 0, pretend = 0, frame = 40
 252              		@ frame_needed = 0, uses_anonymous_args = 0
 253 0000 F0B5     		push	{r4, r5, r6, r7, lr}
 254              		.cfi_def_cfa_offset 20
 255              		.cfi_offset 4, -20
 256              		.cfi_offset 5, -16
 257              		.cfi_offset 6, -12
 258              		.cfi_offset 7, -8
 259              		.cfi_offset 14, -4
 260 0002 8BB0     		sub	sp, sp, #44
 261              		.cfi_def_cfa_offset 64
 262              	.LVL21:
  73:main.c        ****     uint32 shuntCount; //Voltage measured from shunt in 12-bit res
  74:main.c        ****     float shuntVal;
  75:main.c        ****     uint32 vrgndCount;
  76:main.c        ****     float vrgndVal;
  77:main.c        ****     uint32 vrefCount;
  78:main.c        ****     float vrefVal;
  79:main.c        ****     char string[30];
  80:main.c        ****     
ARM GAS  C:\Users\Crowling\AppData\Local\Temp\ccd1UIpA.s 			page 7


  81:main.c        ****     //uint32 filterTest;
  82:main.c        ****     
  83:main.c        ****     uint32 userInput;
  84:main.c        ****     int8 stopFlag = 0;      
  85:main.c        ****     
  86:main.c        ****     CellTestStart();
 263              		.loc 1 86 0
 264 0004 FFF7FEFF 		bl	CellTestStart
 265              	.LVL22:
  87:main.c        ****     CyGlobalIntEnable;
 266              		.loc 1 87 0
 267              		.syntax divided
 268              	@ 87 "main.c" 1
 269 0008 62B6     		CPSIE   i
 270              	@ 0 "" 2
 271              	.LVL23:
 272              		.thumb
 273              		.syntax unified
 274              	.L15:
  88:main.c        ****     
  89:main.c        ****     for(;;)
  90:main.c        ****     {
  91:main.c        ****         BLUE_LED_Write(1);
 275              		.loc 1 91 0
 276 000a 0120     		movs	r0, #1
 277 000c FFF7FEFF 		bl	BLUE_LED_Write
 278              	.LVL24:
  92:main.c        ****         CyDelay(1000);
 279              		.loc 1 92 0
 280 0010 FA20     		movs	r0, #250
 281 0012 8000     		lsls	r0, r0, #2
 282 0014 FFF7FEFF 		bl	CyDelay
 283              	.LVL25:
  93:main.c        ****         userInput = UART_1_UartGetChar();
 284              		.loc 1 93 0
 285 0018 FFF7FEFF 		bl	UART_1_UartGetChar
 286              	.LVL26:
 287 001c 0600     		movs	r6, r0
 288              	.LVL27:
  94:main.c        ****         
  95:main.c        ****         if (userInput == 71)  //Type Capital G into Putty
 289              		.loc 1 95 0
 290 001e 4728     		cmp	r0, #71
 291 0020 F3D1     		bne	.L15
  96:main.c        ****         {
  97:main.c        ****             Timer_1_Start();
 292              		.loc 1 97 0
 293 0022 FFF7FEFF 		bl	Timer_1_Start
 294              	.LVL28:
  98:main.c        ****             stopFlag = 0;
  99:main.c        ****             PVref_1_Start();
 295              		.loc 1 99 0
 296 0026 FFF7FEFF 		bl	PVref_1_Start
 297              	.LVL29:
 100:main.c        ****             PVref_1_Enable();
 298              		.loc 1 100 0
 299 002a FFF7FEFF 		bl	PVref_1_Enable
ARM GAS  C:\Users\Crowling\AppData\Local\Temp\ccd1UIpA.s 			page 8


 300              	.LVL30:
  98:main.c        ****             stopFlag = 0;
 301              		.loc 1 98 0
 302 002e 0025     		movs	r5, #0
 101:main.c        ****             
 102:main.c        ****             while(!stopFlag){
 303              		.loc 1 102 0
 304 0030 76E0     		b	.L16
 305              	.LVL31:
 306              	.L19:
 103:main.c        ****                 
 104:main.c        ****                 AMux_2_Select(1);
 307              		.loc 1 104 0
 308 0032 0120     		movs	r0, #1
 309 0034 FFF7FEFF 		bl	AMux_2_Select
 310              	.LVL32:
 105:main.c        ****                 
 106:main.c        ****                 AMux_1_Select(0);                              
 311              		.loc 1 106 0
 312 0038 0020     		movs	r0, #0
 313 003a FFF7FEFF 		bl	AMux_1_Select
 314              	.LVL33:
 107:main.c        ****                 ADC_1_StartConvert();                           
 315              		.loc 1 107 0
 316 003e FFF7FEFF 		bl	ADC_1_StartConvert
 317              	.LVL34:
 108:main.c        ****                 ADC_1_IsEndConversion(ADC_1_WAIT_FOR_RESULT);
 318              		.loc 1 108 0
 319 0042 0220     		movs	r0, #2
 320 0044 FFF7FEFF 		bl	ADC_1_IsEndConversion
 321              	.LVL35:
 109:main.c        ****                 vrefCount = ADC_1_GetResult32(0);
 322              		.loc 1 109 0
 323 0048 0020     		movs	r0, #0
 324 004a FFF7FEFF 		bl	ADC_1_GetResult32
 325              	.LVL36:
 326 004e 0400     		movs	r4, r0
 327              	.LVL37:
 110:main.c        ****                 ADC_1_StopConvert();
 328              		.loc 1 110 0
 329 0050 FFF7FEFF 		bl	ADC_1_StopConvert
 330              	.LVL38:
 111:main.c        ****                 vrefVal = FilterSignal(vrefCount);
 331              		.loc 1 111 0
 332 0054 2000     		movs	r0, r4
 333 0056 FFF7FEFF 		bl	FilterSignal
 334              	.LVL39:
 335 005a FFF7FEFF 		bl	__aeabi_i2f
 336              	.LVL40:
 337 005e 071C     		adds	r7, r0, #0
 338              	.LVL41:
 112:main.c        ****                 
 113:main.c        ****                 AMux_1_Select(1);                               // Mux Select
 339              		.loc 1 113 0
 340 0060 0120     		movs	r0, #1
 341              	.LVL42:
 342 0062 FFF7FEFF 		bl	AMux_1_Select
ARM GAS  C:\Users\Crowling\AppData\Local\Temp\ccd1UIpA.s 			page 9


 343              	.LVL43:
 114:main.c        ****                 ADC_1_StartConvert();                           // Start the Read the ADC
 344              		.loc 1 114 0
 345 0066 FFF7FEFF 		bl	ADC_1_StartConvert
 346              	.LVL44:
 115:main.c        ****                 ADC_1_IsEndConversion(ADC_1_WAIT_FOR_RESULT);
 347              		.loc 1 115 0
 348 006a 0220     		movs	r0, #2
 349 006c FFF7FEFF 		bl	ADC_1_IsEndConversion
 350              	.LVL45:
 116:main.c        ****                 shuntCount = ADC_1_GetResult32(0);
 351              		.loc 1 116 0
 352 0070 0020     		movs	r0, #0
 353 0072 FFF7FEFF 		bl	ADC_1_GetResult32
 354              	.LVL46:
 355 0076 0400     		movs	r4, r0
 356              	.LVL47:
 117:main.c        ****                 ADC_1_StopConvert();
 357              		.loc 1 117 0
 358 0078 FFF7FEFF 		bl	ADC_1_StopConvert
 359              	.LVL48:
 118:main.c        ****                 shuntCount = FilterSignal(shuntCount);
 360              		.loc 1 118 0
 361 007c 2000     		movs	r0, r4
 362 007e FFF7FEFF 		bl	FilterSignal
 363              	.LVL49:
 364 0082 0400     		movs	r4, r0
 365              	.LVL50:
 119:main.c        ****                 
 120:main.c        ****                 AMux_1_Select(2);                               // Mux Select
 366              		.loc 1 120 0
 367 0084 0220     		movs	r0, #2
 368              	.LVL51:
 369 0086 FFF7FEFF 		bl	AMux_1_Select
 370              	.LVL52:
 121:main.c        ****                 ADC_1_StartConvert();                           // Start the Read the ADC
 371              		.loc 1 121 0
 372 008a FFF7FEFF 		bl	ADC_1_StartConvert
 373              	.LVL53:
 122:main.c        ****                 ADC_1_IsEndConversion(ADC_1_WAIT_FOR_RESULT);
 374              		.loc 1 122 0
 375 008e 0220     		movs	r0, #2
 376 0090 FFF7FEFF 		bl	ADC_1_IsEndConversion
 377              	.LVL54:
 123:main.c        ****                 vrgndCount = ADC_1_GetResult32(0);
 378              		.loc 1 123 0
 379 0094 0020     		movs	r0, #0
 380 0096 FFF7FEFF 		bl	ADC_1_GetResult32
 381              	.LVL55:
 124:main.c        ****                 ADC_1_StopConvert();
 382              		.loc 1 124 0
 383 009a FFF7FEFF 		bl	ADC_1_StopConvert
 384              	.LVL56:
 125:main.c        ****                 vrgndCount = FilterSignal(shuntCount);
 385              		.loc 1 125 0
 386 009e 2000     		movs	r0, r4
 387 00a0 FFF7FEFF 		bl	FilterSignal
ARM GAS  C:\Users\Crowling\AppData\Local\Temp\ccd1UIpA.s 			page 10


 388              	.LVL57:
 126:main.c        ****                 
 127:main.c        ****                 shuntCount = shuntCount - vrgndCount;
 389              		.loc 1 127 0
 390 00a4 201A     		subs	r0, r4, r0
 391              	.LVL58:
 128:main.c        ****                 shuntVal = ADC_1_CountsTo_mVolts(shuntCount, 0);
 392              		.loc 1 128 0
 393 00a6 0021     		movs	r1, #0
 394 00a8 FFF7FEFF 		bl	ADC_1_CountsTo_mVolts
 395              	.LVL59:
 396 00ac FFF7FEFF 		bl	__aeabi_i2f
 397              	.LVL60:
 129:main.c        ****                 shuntVal = (shuntVal*SHUNT_CONDUCTANCE)/(vrefVal/V_REF);
 398              		.loc 1 129 0
 399 00b0 FFF7FEFF 		bl	__aeabi_f2d
 400              	.LVL61:
 401 00b4 1C4A     		ldr	r2, .L21
 402 00b6 1D4B     		ldr	r3, .L21+4
 403 00b8 FFF7FEFF 		bl	__aeabi_dmul
 404              	.LVL62:
 405 00bc 0090     		str	r0, [sp]
 406 00be 0191     		str	r1, [sp, #4]
 407 00c0 381C     		adds	r0, r7, #0
 408 00c2 FFF7FEFF 		bl	__aeabi_f2d
 409              	.LVL63:
 410 00c6 0022     		movs	r2, #0
 411 00c8 194B     		ldr	r3, .L21+8
 412 00ca FFF7FEFF 		bl	__aeabi_ddiv
 413              	.LVL64:
 414 00ce 0200     		movs	r2, r0
 415 00d0 0B00     		movs	r3, r1
 416 00d2 0098     		ldr	r0, [sp]
 417 00d4 0199     		ldr	r1, [sp, #4]
 418 00d6 FFF7FEFF 		bl	__aeabi_ddiv
 419              	.LVL65:
 420 00da FFF7FEFF 		bl	__aeabi_d2f
 421              	.LVL66:
 422 00de 041C     		adds	r4, r0, #0
 423              	.LVL67:
 130:main.c        ****                 
 131:main.c        ****                 if (userInput == 83){              // 83 is ASCII for stop 
 424              		.loc 1 131 0
 425 00e0 532E     		cmp	r6, #83
 426 00e2 04D1     		bne	.L17
 427              	.LVL68:
 132:main.c        ****                     stopFlag = 1;
 133:main.c        ****                     Timer_1_Stop();
 428              		.loc 1 133 0
 429 00e4 FFF7FEFF 		bl	Timer_1_Stop
 430              	.LVL69:
 134:main.c        ****                     CellTestStop();
 431              		.loc 1 134 0
 432 00e8 FFF7FEFF 		bl	CellTestStop
 433              	.LVL70:
 132:main.c        ****                     stopFlag = 1;
 434              		.loc 1 132 0
ARM GAS  C:\Users\Crowling\AppData\Local\Temp\ccd1UIpA.s 			page 11


 435 00ec 0125     		movs	r5, #1
 436              	.LVL71:
 437              	.L17:
 135:main.c        ****                 }
 136:main.c        ****                 
 137:main.c        ****                 CyDelayUs(250);
 438              		.loc 1 137 0
 439 00ee FA20     		movs	r0, #250
 440 00f0 FFF7FEFF 		bl	CyDelayUs
 441              	.LVL72:
 138:main.c        ****                 
 139:main.c        ****                 if (Timer_1_ReadCounter() > 4){
 442              		.loc 1 139 0
 443 00f4 FFF7FEFF 		bl	Timer_1_ReadCounter
 444              	.LVL73:
 445 00f8 0428     		cmp	r0, #4
 446 00fa 11D9     		bls	.L16
 140:main.c        ****                     sprintf(string, "Shunt Value: %f", shuntVal); 
 447              		.loc 1 140 0
 448 00fc 201C     		adds	r0, r4, #0
 449 00fe FFF7FEFF 		bl	__aeabi_f2d
 450              	.LVL74:
 451 0102 0200     		movs	r2, r0
 452 0104 0B00     		movs	r3, r1
 453 0106 0B49     		ldr	r1, .L21+12
 454 0108 02A8     		add	r0, sp, #8
 455 010a FFF7FEFF 		bl	sprintf
 456              	.LVL75:
 141:main.c        ****                     UART_1_UartPutString(string);
 457              		.loc 1 141 0
 458 010e 02A8     		add	r0, sp, #8
 459 0110 FFF7FEFF 		bl	UART_1_UartPutString
 460              	.LVL76:
 142:main.c        ****                     UART_1_UartPutString("\n\r");
 461              		.loc 1 142 0
 462 0114 0848     		ldr	r0, .L21+16
 463 0116 FFF7FEFF 		bl	UART_1_UartPutString
 464              	.LVL77:
 143:main.c        ****                     Timer_1_WriteCounter(0);
 465              		.loc 1 143 0
 466 011a 0020     		movs	r0, #0
 467 011c FFF7FEFF 		bl	Timer_1_WriteCounter
 468              	.LVL78:
 469              	.L16:
 102:main.c        ****                 
 470              		.loc 1 102 0
 471 0120 002D     		cmp	r5, #0
 472 0122 86D0     		beq	.L19
 473 0124 71E7     		b	.L15
 474              	.L22:
 475 0126 C046     		.align	2
 476              	.L21:
 477 0128 33333333 		.word	858993459
 478 012c 3333F33F 		.word	1072902963
 479 0130 00004440 		.word	1078198272
 480 0134 38000000 		.word	.LC8
 481 0138 48000000 		.word	.LC10
ARM GAS  C:\Users\Crowling\AppData\Local\Temp\ccd1UIpA.s 			page 12


 482              		.cfi_endproc
 483              	.LFE38:
 484              		.size	main, .-main
 485              		.section	.rodata.str1.4,"aMS",%progbits,1
 486              		.align	2
 487              	.LC2:
 488 0000 0D0A2070 		.ascii	"\015\012 pointer %ld \015\012\000"
 488      6F696E74 
 488      65722025 
 488      6C64200D 
 488      0A00
 489 0012 0000     		.space	2
 490              	.LC4:
 491 0014 0D0A2061 		.ascii	"\015\012 array %ld\015\012\000"
 491      72726179 
 491      20256C64 
 491      0D0A00
 492 0023 00       		.space	1
 493              	.LC6:
 494 0024 0D0A2050 		.ascii	"\015\012 POINTER %ld\015\012\000"
 494      4F494E54 
 494      45522025 
 494      6C640D0A 
 494      00
 495 0035 000000   		.space	3
 496              	.LC8:
 497 0038 5368756E 		.ascii	"Shunt Value: %f\000"
 497      74205661 
 497      6C75653A 
 497      20256600 
 498              	.LC10:
 499 0048 0A0D00   		.ascii	"\012\015\000"
 500              		.bss
 501              		.align	2
 502              		.set	.LANCHOR0,. + 0
 503              		.type	filteredValue.7375, %object
 504              		.size	filteredValue.7375, 4
 505              	filteredValue.7375:
 506 0000 00000000 		.space	4
 507              		.type	pointer.7380, %object
 508              		.size	pointer.7380, 4
 509              	pointer.7380:
 510 0004 00000000 		.space	4
 511              		.text
 512              	.Letext0:
 513              		.file 2 "Generated_Source\\PSoC4/cytypes.h"
 514              		.file 3 "Generated_Source\\PSoC4/AMux_1.h"
 515              		.file 4 "Generated_Source\\PSoC4/AMux_2.h"
 516              		.file 5 "Generated_Source\\PSoC4/Opamp_1.h"
 517              		.file 6 "Generated_Source\\PSoC4/Opamp_2.h"
 518              		.file 7 "Generated_Source\\PSoC4/ADC_1.h"
 519              		.file 8 "Generated_Source\\PSoC4/UART_1.h"
 520              		.file 9 "Generated_Source\\PSoC4/BLUE_LED.h"
 521              		.file 10 "Generated_Source\\PSoC4/RELAY_EN.h"
 522              		.file 11 "Generated_Source\\PSoC4/PVref_1.h"
 523              		.file 12 "d:\\cypress\\psoc creator\\4.4\\psoc creator\\import\\gnu\\arm\\5.4.1\\arm-none-eabi\\in
 524              		.file 13 "Generated_Source\\PSoC4/CyLib.h"
ARM GAS  C:\Users\Crowling\AppData\Local\Temp\ccd1UIpA.s 			page 13


 525              		.file 14 "Generated_Source\\PSoC4/UART_1_SPI_UART.h"
 526              		.file 15 "Generated_Source\\PSoC4/Timer_1.h"