ARM GAS  C:\Users\Crowling\AppData\Local\Temp\ccQ9kA97.s 			page 1


   1              		.syntax unified
   2              		.cpu cortex-m0plus
   3              		.fpu softvfp
   4              		.eabi_attribute 20, 1
   5              		.eabi_attribute 21, 1
   6              		.eabi_attribute 23, 3
   7              		.eabi_attribute 24, 1
   8              		.eabi_attribute 25, 1
   9              		.eabi_attribute 26, 1
  10              		.eabi_attribute 30, 1
  11              		.eabi_attribute 34, 0
  12              		.eabi_attribute 18, 4
  13              		.thumb
  14              		.syntax unified
  15              		.file	"PGA_1.c"
  16              		.text
  17              	.Ltext0:
  18              		.cfi_sections	.debug_frame
  19              		.section	.text.PGA_1_Enable,"ax",%progbits
  20              		.align	2
  21              		.global	PGA_1_Enable
  22              		.code	16
  23              		.thumb_func
  24              		.type	PGA_1_Enable, %function
  25              	PGA_1_Enable:
  26              	.LFB1:
  27              		.file 1 "Generated_Source\\PSoC4\\PGA_1.c"
   1:Generated_Source\PSoC4/PGA_1.c **** /***************************************************************************//**
   2:Generated_Source\PSoC4/PGA_1.c **** * \file     PGA_1.c
   3:Generated_Source\PSoC4/PGA_1.c **** * \version  1.10
   4:Generated_Source\PSoC4/PGA_1.c **** *
   5:Generated_Source\PSoC4/PGA_1.c **** * \brief
   6:Generated_Source\PSoC4/PGA_1.c **** *  This file provides the source code to the API for the PGA_P4 Component
   7:Generated_Source\PSoC4/PGA_1.c **** *
   8:Generated_Source\PSoC4/PGA_1.c **** ********************************************************************************
   9:Generated_Source\PSoC4/PGA_1.c **** * \copyright
  10:Generated_Source\PSoC4/PGA_1.c **** * Copyright 2016, Cypress Semiconductor Corporation.  All rights reserved.
  11:Generated_Source\PSoC4/PGA_1.c **** * You may use this file only in accordance with the license, terms, conditions,
  12:Generated_Source\PSoC4/PGA_1.c **** * disclaimers, and limitations in the end user license agreement accompanying
  13:Generated_Source\PSoC4/PGA_1.c **** * the software package with which this file was provided.
  14:Generated_Source\PSoC4/PGA_1.c **** *******************************************************************************/
  15:Generated_Source\PSoC4/PGA_1.c **** 
  16:Generated_Source\PSoC4/PGA_1.c **** #include "PGA_1_PVT.h"
  17:Generated_Source\PSoC4/PGA_1.c **** 
  18:Generated_Source\PSoC4/PGA_1.c **** 
  19:Generated_Source\PSoC4/PGA_1.c **** uint8 PGA_1_initVar = 0u; /**< Describes the init state of the component */
  20:Generated_Source\PSoC4/PGA_1.c **** 
  21:Generated_Source\PSoC4/PGA_1.c **** uint32 PGA_1_internalGainPower = 0u; /**< Stores component Gain, Power and Enable values */
  22:Generated_Source\PSoC4/PGA_1.c **** 
  23:Generated_Source\PSoC4/PGA_1.c **** /***************************************************************************//**
  24:Generated_Source\PSoC4/PGA_1.c **** * Compensation table 
  25:Generated_Source\PSoC4/PGA_1.c **** *
  26:Generated_Source\PSoC4/PGA_1.c **** * There is a feedback compensation capacitor recomended setting (for certain 
  27:Generated_Source\PSoC4/PGA_1.c **** * gain and power setting) under the mask 0x0F000000u
  28:Generated_Source\PSoC4/PGA_1.c **** * or (PGA_1_C_FB_MASK)
  29:Generated_Source\PSoC4/PGA_1.c **** *
  30:Generated_Source\PSoC4/PGA_1.c **** * Also there is an OpAmp compensation recomended setting (for certain 
ARM GAS  C:\Users\Crowling\AppData\Local\Temp\ccQ9kA97.s 			page 2


  31:Generated_Source\PSoC4/PGA_1.c **** * gain and power setting) under the mask 0x00000003u
  32:Generated_Source\PSoC4/PGA_1.c **** * or (PGA_1_GET_OA_COMP_TRIM)
  33:Generated_Source\PSoC4/PGA_1.c **** *
  34:Generated_Source\PSoC4/PGA_1.c **** * There is only 6 values for whole gain range because the recommended 
  35:Generated_Source\PSoC4/PGA_1.c **** * values are for each pair of adjacent gain values, e.g.:
  36:Generated_Source\PSoC4/PGA_1.c **** * the first (index = 0) value is for gain = 1 and 1.4,
  37:Generated_Source\PSoC4/PGA_1.c **** * the second (index = 1) value is for gain = 2 and 2.8,and so on,
  38:Generated_Source\PSoC4/PGA_1.c **** * and the sixth (index = 5) value is for gain = 32 only.
  39:Generated_Source\PSoC4/PGA_1.c **** *******************************************************************************/
  40:Generated_Source\PSoC4/PGA_1.c **** const uint32 PGA_1_compTab[PGA_1_COMP_TAB_HEIGHT][PGA_1_COMP_TAB_WIDTH] =
  41:Generated_Source\PSoC4/PGA_1.c **** {
  42:Generated_Source\PSoC4/PGA_1.c **** #if (PGA_1_CHECK_OUTPUT_MODE) /* Class AB */
  43:Generated_Source\PSoC4/PGA_1.c ****     {0x0F000002u, 0x0F000002u, 0x0F000002u},
  44:Generated_Source\PSoC4/PGA_1.c ****     {0x07000002u, 0x09000002u, 0x09000002u},
  45:Generated_Source\PSoC4/PGA_1.c ****     {0x04000002u, 0x04000002u, 0x04000002u},
  46:Generated_Source\PSoC4/PGA_1.c ****     {0x03000001u, 0x02000002u, 0x03000002u},
  47:Generated_Source\PSoC4/PGA_1.c ****     {0x01000001u, 0x00000002u, 0x00000002u},
  48:Generated_Source\PSoC4/PGA_1.c ****     {0x01000001u, 0x01000001u, 0x02000001u}
  49:Generated_Source\PSoC4/PGA_1.c **** #else /* Class A */
  50:Generated_Source\PSoC4/PGA_1.c ****     {0x0F000002u, 0x0F000002u, 0x0F000002u},
  51:Generated_Source\PSoC4/PGA_1.c ****     {0x08000002u, 0x09000002u, 0x09000002u},
  52:Generated_Source\PSoC4/PGA_1.c ****     {0x03000001u, 0x05000002u, 0x04000002u},
  53:Generated_Source\PSoC4/PGA_1.c ****     {0x00000001u, 0x02000002u, 0x03000002u},
  54:Generated_Source\PSoC4/PGA_1.c ****     {0x00000001u, 0x00000002u, 0x01000002u},
  55:Generated_Source\PSoC4/PGA_1.c ****     {0x00000001u, 0x00000001u, 0x00000001u}
  56:Generated_Source\PSoC4/PGA_1.c **** #endif /* PGA_1_OUTPUT_MODE */
  57:Generated_Source\PSoC4/PGA_1.c **** };
  58:Generated_Source\PSoC4/PGA_1.c **** 
  59:Generated_Source\PSoC4/PGA_1.c **** 
  60:Generated_Source\PSoC4/PGA_1.c **** /*******************************************************************************   
  61:Generated_Source\PSoC4/PGA_1.c **** * Function Name: PGA_1_Init
  62:Generated_Source\PSoC4/PGA_1.c **** ****************************************************************************//**
  63:Generated_Source\PSoC4/PGA_1.c **** *
  64:Generated_Source\PSoC4/PGA_1.c **** *  Initializes component's parameters to the values set by user in the 
  65:Generated_Source\PSoC4/PGA_1.c **** *  customizer of the component placed onto schematic. Usually it is called in 
  66:Generated_Source\PSoC4/PGA_1.c **** *  PGA_1_Start().
  67:Generated_Source\PSoC4/PGA_1.c **** *
  68:Generated_Source\PSoC4/PGA_1.c **** *******************************************************************************/
  69:Generated_Source\PSoC4/PGA_1.c **** void PGA_1_Init(void)
  70:Generated_Source\PSoC4/PGA_1.c **** {
  71:Generated_Source\PSoC4/PGA_1.c ****     /* Set default internal variable value */
  72:Generated_Source\PSoC4/PGA_1.c ****     PGA_1_internalGainPower = PGA_1_DEFAULT_GAIN_POWER;
  73:Generated_Source\PSoC4/PGA_1.c ****     
  74:Generated_Source\PSoC4/PGA_1.c ****     /* Set default register values */
  75:Generated_Source\PSoC4/PGA_1.c ****     PGA_1_CTB_CTRL_REG |= PGA_1_DEFAULT_CTB_CTRL;
  76:Generated_Source\PSoC4/PGA_1.c ****     PGA_1_OA_RES_CTRL_REG &= (uint32) ~PGA_1_DEFAULT_OA_RES_CTRL_MASK;
  77:Generated_Source\PSoC4/PGA_1.c ****     PGA_1_OA_RES_CTRL_REG |= PGA_1_DEFAULT_OA_RES_CTRL;
  78:Generated_Source\PSoC4/PGA_1.c ****     
  79:Generated_Source\PSoC4/PGA_1.c ****     /* Check if component has been enabled */
  80:Generated_Source\PSoC4/PGA_1.c ****     if((PGA_1_OA_RES_CTRL_REG & PGA_1_OA_PWR_MODE_MASK) != 0u)
  81:Generated_Source\PSoC4/PGA_1.c ****     {
  82:Generated_Source\PSoC4/PGA_1.c ****         /* Set the default power level */
  83:Generated_Source\PSoC4/PGA_1.c ****         PGA_1_Enable();
  84:Generated_Source\PSoC4/PGA_1.c ****     }
  85:Generated_Source\PSoC4/PGA_1.c ****     
  86:Generated_Source\PSoC4/PGA_1.c ****     /* Set default gain and correspondent Cfb and OA_trim values */
  87:Generated_Source\PSoC4/PGA_1.c ****     PGA_1_SetGain(PGA_1_GAIN);
ARM GAS  C:\Users\Crowling\AppData\Local\Temp\ccQ9kA97.s 			page 3


  88:Generated_Source\PSoC4/PGA_1.c **** }
  89:Generated_Source\PSoC4/PGA_1.c **** 
  90:Generated_Source\PSoC4/PGA_1.c **** 
  91:Generated_Source\PSoC4/PGA_1.c **** /*******************************************************************************   
  92:Generated_Source\PSoC4/PGA_1.c **** * Function Name: PGA_1_Enable
  93:Generated_Source\PSoC4/PGA_1.c **** ****************************************************************************//**
  94:Generated_Source\PSoC4/PGA_1.c **** *
  95:Generated_Source\PSoC4/PGA_1.c **** *  Powers up amplifier (to default power level or restored after 
  96:Generated_Source\PSoC4/PGA_1.c **** *  previous PGA_1_Stop() call).
  97:Generated_Source\PSoC4/PGA_1.c **** *  Usually it is called in PGA_1_Start().
  98:Generated_Source\PSoC4/PGA_1.c **** *  
  99:Generated_Source\PSoC4/PGA_1.c **** *******************************************************************************/
 100:Generated_Source\PSoC4/PGA_1.c **** void PGA_1_Enable(void)
 101:Generated_Source\PSoC4/PGA_1.c **** {
  28              		.loc 1 101 0
  29              		.cfi_startproc
  30              		@ args = 0, pretend = 0, frame = 0
  31              		@ frame_needed = 0, uses_anonymous_args = 0
  32              		@ link register save eliminated.
 102:Generated_Source\PSoC4/PGA_1.c ****     PGA_1_OA_RES_CTRL_REG |= PGA_1_GET_POWER;
  33              		.loc 1 102 0
  34 0000 0449     		ldr	r1, .L2
  35 0002 0868     		ldr	r0, [r1]
  36 0004 044B     		ldr	r3, .L2+4
  37 0006 1B68     		ldr	r3, [r3]
  38 0008 0322     		movs	r2, #3
  39 000a 1340     		ands	r3, r2
  40 000c 0343     		orrs	r3, r0
  41 000e 0B60     		str	r3, [r1]
 103:Generated_Source\PSoC4/PGA_1.c **** }
  42              		.loc 1 103 0
  43              		@ sp needed
  44 0010 7047     		bx	lr
  45              	.L3:
  46 0012 C046     		.align	2
  47              	.L2:
  48 0014 08003040 		.word	1076887560
  49 0018 00000000 		.word	.LANCHOR0
  50              		.cfi_endproc
  51              	.LFE1:
  52              		.size	PGA_1_Enable, .-PGA_1_Enable
  53              		.section	.text.PGA_1_Stop,"ax",%progbits
  54              		.align	2
  55              		.global	PGA_1_Stop
  56              		.code	16
  57              		.thumb_func
  58              		.type	PGA_1_Stop, %function
  59              	PGA_1_Stop:
  60              	.LFB3:
 104:Generated_Source\PSoC4/PGA_1.c **** 
 105:Generated_Source\PSoC4/PGA_1.c **** 
 106:Generated_Source\PSoC4/PGA_1.c **** /*******************************************************************************
 107:Generated_Source\PSoC4/PGA_1.c **** * Function Name: PGA_1_Start
 108:Generated_Source\PSoC4/PGA_1.c **** ****************************************************************************//**
 109:Generated_Source\PSoC4/PGA_1.c **** *
 110:Generated_Source\PSoC4/PGA_1.c **** *  Enables the amplifier operation (calls PGA_1_Enable).
 111:Generated_Source\PSoC4/PGA_1.c **** *  Also on the first call (after the system reset) initializes all the component
ARM GAS  C:\Users\Crowling\AppData\Local\Temp\ccQ9kA97.s 			page 4


 112:Generated_Source\PSoC4/PGA_1.c **** *  related registers with default values (calls PGA_1_Init).
 113:Generated_Source\PSoC4/PGA_1.c **** *
 114:Generated_Source\PSoC4/PGA_1.c **** *  \globalvars
 115:Generated_Source\PSoC4/PGA_1.c **** *   The PGA_1_initVar variable is used to indicate initial
 116:Generated_Source\PSoC4/PGA_1.c **** *   configuration of this component. The variable is initialized to zero (0u)
 117:Generated_Source\PSoC4/PGA_1.c **** *   and set to one (1u) at the first time PGA_1_Start() is called.
 118:Generated_Source\PSoC4/PGA_1.c **** *   This allows to enable the component without re-initialization in all
 119:Generated_Source\PSoC4/PGA_1.c **** *   subsequent calls of the PGA_1_Start() routine.
 120:Generated_Source\PSoC4/PGA_1.c **** *
 121:Generated_Source\PSoC4/PGA_1.c **** *******************************************************************************/
 122:Generated_Source\PSoC4/PGA_1.c **** void PGA_1_Start(void)
 123:Generated_Source\PSoC4/PGA_1.c **** {
 124:Generated_Source\PSoC4/PGA_1.c ****     if(PGA_1_initVar == 0u)
 125:Generated_Source\PSoC4/PGA_1.c ****     {
 126:Generated_Source\PSoC4/PGA_1.c ****         PGA_1_Init();
 127:Generated_Source\PSoC4/PGA_1.c ****         PGA_1_initVar = 1u;
 128:Generated_Source\PSoC4/PGA_1.c ****     }
 129:Generated_Source\PSoC4/PGA_1.c **** 
 130:Generated_Source\PSoC4/PGA_1.c ****     PGA_1_Enable();
 131:Generated_Source\PSoC4/PGA_1.c **** }
 132:Generated_Source\PSoC4/PGA_1.c **** 
 133:Generated_Source\PSoC4/PGA_1.c **** 
 134:Generated_Source\PSoC4/PGA_1.c **** /*******************************************************************************
 135:Generated_Source\PSoC4/PGA_1.c **** * Function Name: PGA_1_Stop
 136:Generated_Source\PSoC4/PGA_1.c **** ****************************************************************************//**
 137:Generated_Source\PSoC4/PGA_1.c **** *
 138:Generated_Source\PSoC4/PGA_1.c **** *  Powers down the amplifier.
 139:Generated_Source\PSoC4/PGA_1.c **** *
 140:Generated_Source\PSoC4/PGA_1.c **** *******************************************************************************/
 141:Generated_Source\PSoC4/PGA_1.c **** void PGA_1_Stop(void)
 142:Generated_Source\PSoC4/PGA_1.c **** { 
  61              		.loc 1 142 0
  62              		.cfi_startproc
  63              		@ args = 0, pretend = 0, frame = 0
  64              		@ frame_needed = 0, uses_anonymous_args = 0
  65              		@ link register save eliminated.
 143:Generated_Source\PSoC4/PGA_1.c ****     PGA_1_OA_RES_CTRL_REG &= (uint32)~PGA_1_OA_PWR_MODE_MASK;
  66              		.loc 1 143 0
  67 0000 024A     		ldr	r2, .L5
  68 0002 1368     		ldr	r3, [r2]
  69 0004 0321     		movs	r1, #3
  70 0006 8B43     		bics	r3, r1
  71 0008 1360     		str	r3, [r2]
 144:Generated_Source\PSoC4/PGA_1.c **** }
  72              		.loc 1 144 0
  73              		@ sp needed
  74 000a 7047     		bx	lr
  75              	.L6:
  76              		.align	2
  77              	.L5:
  78 000c 08003040 		.word	1076887560
  79              		.cfi_endproc
  80              	.LFE3:
  81              		.size	PGA_1_Stop, .-PGA_1_Stop
  82              		.section	.text.PGA_1_SetPower,"ax",%progbits
  83              		.align	2
  84              		.global	PGA_1_SetPower
ARM GAS  C:\Users\Crowling\AppData\Local\Temp\ccQ9kA97.s 			page 5


  85              		.code	16
  86              		.thumb_func
  87              		.type	PGA_1_SetPower, %function
  88              	PGA_1_SetPower:
  89              	.LFB4:
 145:Generated_Source\PSoC4/PGA_1.c **** 
 146:Generated_Source\PSoC4/PGA_1.c **** 
 147:Generated_Source\PSoC4/PGA_1.c **** /*******************************************************************************
 148:Generated_Source\PSoC4/PGA_1.c **** * Function Name: PGA_1_SetPower
 149:Generated_Source\PSoC4/PGA_1.c **** ****************************************************************************//**
 150:Generated_Source\PSoC4/PGA_1.c **** *
 151:Generated_Source\PSoC4/PGA_1.c **** *  Sets the power level of amplifier.
 152:Generated_Source\PSoC4/PGA_1.c **** *
 153:Generated_Source\PSoC4/PGA_1.c **** * \param powerLevel
 154:Generated_Source\PSoC4/PGA_1.c **** *  The power level setting of amplifier. Possible values:
 155:Generated_Source\PSoC4/PGA_1.c **** *   * PGA_1_LOW - The lowest power consumption.
 156:Generated_Source\PSoC4/PGA_1.c **** *   * PGA_1_MED - The middle setting.
 157:Generated_Source\PSoC4/PGA_1.c **** *   * PGA_1_HIGH - The highest amplifier bandwidth.
 158:Generated_Source\PSoC4/PGA_1.c **** *
 159:Generated_Source\PSoC4/PGA_1.c **** *  \internal
 160:Generated_Source\PSoC4/PGA_1.c **** *   The PGA_1_internalGainPower variable is used to store the
 161:Generated_Source\PSoC4/PGA_1.c **** *   current gain and power level to set appropriate compensation settings.
 162:Generated_Source\PSoC4/PGA_1.c **** *
 163:Generated_Source\PSoC4/PGA_1.c **** *******************************************************************************/
 164:Generated_Source\PSoC4/PGA_1.c **** void PGA_1_SetPower(uint32 powerLevel)
 165:Generated_Source\PSoC4/PGA_1.c **** {
  90              		.loc 1 165 0
  91              		.cfi_startproc
  92              		@ args = 0, pretend = 0, frame = 0
  93              		@ frame_needed = 0, uses_anonymous_args = 0
  94              	.LVL0:
  95 0000 F0B5     		push	{r4, r5, r6, r7, lr}
  96              		.cfi_def_cfa_offset 20
  97              		.cfi_offset 4, -20
  98              		.cfi_offset 5, -16
  99              		.cfi_offset 6, -12
 100              		.cfi_offset 7, -8
 101              		.cfi_offset 14, -4
 102 0002 4746     		mov	r7, r8
 103 0004 80B4     		push	{r7}
 104              		.cfi_def_cfa_offset 24
 105              		.cfi_offset 8, -24
 166:Generated_Source\PSoC4/PGA_1.c ****     uint32 locTmp;
 167:Generated_Source\PSoC4/PGA_1.c ****     
 168:Generated_Source\PSoC4/PGA_1.c ****     /* Save the powerLevel */
 169:Generated_Source\PSoC4/PGA_1.c ****     PGA_1_internalGainPower &= (uint32) ~PGA_1_OA_PWR_MODE_MASK;
 106              		.loc 1 169 0
 107 0006 184D     		ldr	r5, .L8
 108 0008 0321     		movs	r1, #3
 109 000a 2B68     		ldr	r3, [r5]
 110 000c 8B43     		bics	r3, r1
 170:Generated_Source\PSoC4/PGA_1.c ****     PGA_1_internalGainPower |= powerLevel & PGA_1_OA_PWR_MODE_MASK;
 111              		.loc 1 170 0
 112 000e 0840     		ands	r0, r1
 113              	.LVL1:
 114 0010 1843     		orrs	r0, r3
 115 0012 2860     		str	r0, [r5]
ARM GAS  C:\Users\Crowling\AppData\Local\Temp\ccQ9kA97.s 			page 6


 171:Generated_Source\PSoC4/PGA_1.c ****     
 172:Generated_Source\PSoC4/PGA_1.c ****     /* Save the rest of register bitfields */
 173:Generated_Source\PSoC4/PGA_1.c ****     locTmp = PGA_1_OA_RES_CTRL_REG &
 116              		.loc 1 173 0
 117 0014 154B     		ldr	r3, .L8+4
 118 0016 9846     		mov	r8, r3
 119 0018 1C68     		ldr	r4, [r3]
 120 001a 154A     		ldr	r2, .L8+8
 121 001c 1440     		ands	r4, r2
 122              	.LVL2:
 174:Generated_Source\PSoC4/PGA_1.c ****         (uint32)~(PGA_1_OA_PWR_MODE_MASK | PGA_1_C_FB_MASK);
 175:Generated_Source\PSoC4/PGA_1.c ****            
 176:Generated_Source\PSoC4/PGA_1.c ****     /* Set the power and the feedback capacitor values into the control register */
 177:Generated_Source\PSoC4/PGA_1.c ****     PGA_1_OA_RES_CTRL_REG  = locTmp | PGA_1_GET_POWER | PGA_1_GET_C_FB;
 123              		.loc 1 177 0
 124 001e 0A00     		movs	r2, r1
 125 0020 0240     		ands	r2, r0
 126 0022 1443     		orrs	r4, r2
 127              	.LVL3:
 128 0024 400C     		lsrs	r0, r0, #17
 129 0026 0727     		movs	r7, #7
 130 0028 3840     		ands	r0, r7
 131 002a 013A     		subs	r2, r2, #1
 132 002c 114E     		ldr	r6, .L8+12
 133 002e 4300     		lsls	r3, r0, #1
 134 0030 9C46     		mov	ip, r3
 135 0032 6044     		add	r0, r0, ip
 136 0034 8018     		adds	r0, r0, r2
 137 0036 8000     		lsls	r0, r0, #2
 138 0038 8059     		ldr	r0, [r0, r6]
 139 003a F022     		movs	r2, #240
 140 003c 1205     		lsls	r2, r2, #20
 141 003e 0240     		ands	r2, r0
 142 0040 1443     		orrs	r4, r2
 143 0042 4346     		mov	r3, r8
 144 0044 1C60     		str	r4, [r3]
 178:Generated_Source\PSoC4/PGA_1.c ****     
 179:Generated_Source\PSoC4/PGA_1.c ****     /* Set the OA compensation capacitor value */
 180:Generated_Source\PSoC4/PGA_1.c ****     PGA_1_OA_COMP_TRIM_REG = PGA_1_GET_OA_COMP_TRIM;
 145              		.loc 1 180 0
 146 0046 2B68     		ldr	r3, [r5]
 147 0048 5A0C     		lsrs	r2, r3, #17
 148 004a 1740     		ands	r7, r2
 149 004c 0B40     		ands	r3, r1
 150 004e 5A1E     		subs	r2, r3, #1
 151 0050 7B00     		lsls	r3, r7, #1
 152 0052 DB19     		adds	r3, r3, r7
 153 0054 9B18     		adds	r3, r3, r2
 154 0056 9B00     		lsls	r3, r3, #2
 155 0058 9B59     		ldr	r3, [r3, r6]
 156 005a 1940     		ands	r1, r3
 157 005c 064B     		ldr	r3, .L8+16
 158 005e 1960     		str	r1, [r3]
 181:Generated_Source\PSoC4/PGA_1.c **** }
 159              		.loc 1 181 0
 160              		@ sp needed
 161 0060 04BC     		pop	{r2}
ARM GAS  C:\Users\Crowling\AppData\Local\Temp\ccQ9kA97.s 			page 7


 162 0062 9046     		mov	r8, r2
 163 0064 F0BD     		pop	{r4, r5, r6, r7, pc}
 164              	.L9:
 165 0066 C046     		.align	2
 166              	.L8:
 167 0068 00000000 		.word	.LANCHOR0
 168 006c 08003040 		.word	1076887560
 169 0070 FCFFFFF0 		.word	-251658244
 170 0074 00000000 		.word	.LANCHOR1
 171 0078 140F3040 		.word	1076891412
 172              		.cfi_endproc
 173              	.LFE4:
 174              		.size	PGA_1_SetPower, .-PGA_1_SetPower
 175              		.section	.text.PGA_1_SetGain,"ax",%progbits
 176              		.align	2
 177              		.global	PGA_1_SetGain
 178              		.code	16
 179              		.thumb_func
 180              		.type	PGA_1_SetGain, %function
 181              	PGA_1_SetGain:
 182              	.LFB5:
 182:Generated_Source\PSoC4/PGA_1.c **** 
 183:Generated_Source\PSoC4/PGA_1.c **** 
 184:Generated_Source\PSoC4/PGA_1.c **** /*******************************************************************************
 185:Generated_Source\PSoC4/PGA_1.c **** * Function Name: PGA_1_SetGain
 186:Generated_Source\PSoC4/PGA_1.c **** ****************************************************************************//**
 187:Generated_Source\PSoC4/PGA_1.c **** *
 188:Generated_Source\PSoC4/PGA_1.c **** *  Sets values of the input and feedback resistors to set a 
 189:Generated_Source\PSoC4/PGA_1.c **** *  specific gain of the amplifier.
 190:Generated_Source\PSoC4/PGA_1.c **** *
 191:Generated_Source\PSoC4/PGA_1.c **** * \param gainLevel
 192:Generated_Source\PSoC4/PGA_1.c **** *  The gain setting of amplifier. Possible values:
 193:Generated_Source\PSoC4/PGA_1.c **** *   * PGA_1_GAIN_1_00 - gain 1.00.
 194:Generated_Source\PSoC4/PGA_1.c **** *   * PGA_1_GAIN_1_42 - gain 1.42.
 195:Generated_Source\PSoC4/PGA_1.c **** *   * PGA_1_GAIN_2_00 - gain 2.00.
 196:Generated_Source\PSoC4/PGA_1.c **** *   * PGA_1_GAIN_2_78 - gain 2.78.
 197:Generated_Source\PSoC4/PGA_1.c **** *   * PGA_1_GAIN_4_00 - gain 4.00.
 198:Generated_Source\PSoC4/PGA_1.c **** *   * PGA_1_GAIN_5_82 - gain 5.82.
 199:Generated_Source\PSoC4/PGA_1.c **** *   * PGA_1_GAIN_8_00 - gain 8.00.
 200:Generated_Source\PSoC4/PGA_1.c **** *   * PGA_1_GAIN_10_7 - gain 10.7.
 201:Generated_Source\PSoC4/PGA_1.c **** *   * PGA_1_GAIN_16_0 - gain 16.0.
 202:Generated_Source\PSoC4/PGA_1.c **** *   * PGA_1_GAIN_21_3 - gain 21.3.
 203:Generated_Source\PSoC4/PGA_1.c **** *   * PGA_1_GAIN_32_0 - gain 32.0.
 204:Generated_Source\PSoC4/PGA_1.c **** *
 205:Generated_Source\PSoC4/PGA_1.c **** *  \internal
 206:Generated_Source\PSoC4/PGA_1.c **** *   The PGA_1_internalGainPower variable is used to store the
 207:Generated_Source\PSoC4/PGA_1.c **** *   current gain and power level to set appropriate compensation settings.
 208:Generated_Source\PSoC4/PGA_1.c **** *
 209:Generated_Source\PSoC4/PGA_1.c **** *******************************************************************************/
 210:Generated_Source\PSoC4/PGA_1.c **** void PGA_1_SetGain(uint32 gainLevel)
 211:Generated_Source\PSoC4/PGA_1.c **** {
 183              		.loc 1 211 0
 184              		.cfi_startproc
 185              		@ args = 0, pretend = 0, frame = 0
 186              		@ frame_needed = 0, uses_anonymous_args = 0
 187              	.LVL4:
 188 0000 F0B5     		push	{r4, r5, r6, r7, lr}
ARM GAS  C:\Users\Crowling\AppData\Local\Temp\ccQ9kA97.s 			page 8


 189              		.cfi_def_cfa_offset 20
 190              		.cfi_offset 4, -20
 191              		.cfi_offset 5, -16
 192              		.cfi_offset 6, -12
 193              		.cfi_offset 7, -8
 194              		.cfi_offset 14, -4
 212:Generated_Source\PSoC4/PGA_1.c ****     uint32 locTmp;
 213:Generated_Source\PSoC4/PGA_1.c ****     
 214:Generated_Source\PSoC4/PGA_1.c ****     /* Save the gainLevel */
 215:Generated_Source\PSoC4/PGA_1.c ****     PGA_1_internalGainPower &= (uint32) ~PGA_1_RES_TAP_MASK;
 195              		.loc 1 215 0
 196 0002 184F     		ldr	r7, .L11
 197 0004 184A     		ldr	r2, .L11+4
 198 0006 3B68     		ldr	r3, [r7]
 199 0008 1A40     		ands	r2, r3
 216:Generated_Source\PSoC4/PGA_1.c ****     PGA_1_internalGainPower |= ((uint32)(gainLevel << PGA_1_RES_TAP_SHIFT)) &
 200              		.loc 1 216 0
 201 000a 0004     		lsls	r0, r0, #16
 202              	.LVL5:
 203 000c F023     		movs	r3, #240
 204 000e 1B03     		lsls	r3, r3, #12
 205 0010 1840     		ands	r0, r3
 206 0012 1043     		orrs	r0, r2
 207 0014 3860     		str	r0, [r7]
 217:Generated_Source\PSoC4/PGA_1.c ****                                                                  PGA_1_RES_TAP_MASK;
 218:Generated_Source\PSoC4/PGA_1.c ****     /* Save the rest of register bitfields */
 219:Generated_Source\PSoC4/PGA_1.c ****     locTmp = PGA_1_OA_RES_CTRL_REG &
 208              		.loc 1 219 0
 209 0016 154A     		ldr	r2, .L11+8
 210 0018 9446     		mov	ip, r2
 211 001a 1168     		ldr	r1, [r2]
 212 001c 144A     		ldr	r2, .L11+12
 213 001e 0A40     		ands	r2, r1
 214              	.LVL6:
 220:Generated_Source\PSoC4/PGA_1.c ****         (uint32)~(PGA_1_RES_TAP_MASK | PGA_1_C_FB_MASK);
 221:Generated_Source\PSoC4/PGA_1.c ****     
 222:Generated_Source\PSoC4/PGA_1.c ****     /* Set the gain and the feedback capacitor values into the control register */
 223:Generated_Source\PSoC4/PGA_1.c ****     PGA_1_OA_RES_CTRL_REG = locTmp | (PGA_1_internalGainPower &
 215              		.loc 1 223 0
 216 0020 0340     		ands	r3, r0
 217 0022 1A43     		orrs	r2, r3
 218              	.LVL7:
 224:Generated_Source\PSoC4/PGA_1.c ****         PGA_1_RES_TAP_MASK) | PGA_1_GET_C_FB;
 219              		.loc 1 224 0
 220 0024 460C     		lsrs	r6, r0, #17
 221 0026 0721     		movs	r1, #7
 222              	.LVL8:
 223 0028 0E40     		ands	r6, r1
 224 002a 0324     		movs	r4, #3
 225 002c 2040     		ands	r0, r4
 226 002e 431E     		subs	r3, r0, #1
 227 0030 104D     		ldr	r5, .L11+16
 228 0032 7000     		lsls	r0, r6, #1
 229 0034 8019     		adds	r0, r0, r6
 230 0036 C018     		adds	r0, r0, r3
 231 0038 8000     		lsls	r0, r0, #2
 232 003a 4059     		ldr	r0, [r0, r5]
ARM GAS  C:\Users\Crowling\AppData\Local\Temp\ccQ9kA97.s 			page 9


 233 003c F023     		movs	r3, #240
 234 003e 1B05     		lsls	r3, r3, #20
 235 0040 0340     		ands	r3, r0
 236 0042 1A43     		orrs	r2, r3
 223:Generated_Source\PSoC4/PGA_1.c ****         PGA_1_RES_TAP_MASK) | PGA_1_GET_C_FB;
 237              		.loc 1 223 0
 238 0044 6346     		mov	r3, ip
 239 0046 1A60     		str	r2, [r3]
 225:Generated_Source\PSoC4/PGA_1.c ****     
 226:Generated_Source\PSoC4/PGA_1.c **** #if (PGA_1_VREF_MODE == PGA_1_VREF_INTERNAL)
 227:Generated_Source\PSoC4/PGA_1.c ****     if(PGA_1_GAIN_1_00 == gainLevel)
 228:Generated_Source\PSoC4/PGA_1.c ****     {
 229:Generated_Source\PSoC4/PGA_1.c ****         /* Disconnect the resistor matrix bottom from the internal Vss */
 230:Generated_Source\PSoC4/PGA_1.c ****         PGA_1_OA_SW_CLEAR_REG = PGA_1_RBOT_TO_VSSA;
 231:Generated_Source\PSoC4/PGA_1.c ****     }
 232:Generated_Source\PSoC4/PGA_1.c ****     else
 233:Generated_Source\PSoC4/PGA_1.c ****     {
 234:Generated_Source\PSoC4/PGA_1.c ****         /* Connect the resistor matrix bottom to the internal Vss */
 235:Generated_Source\PSoC4/PGA_1.c ****         PGA_1_OA_SW_REG = PGA_1_RBOT_TO_VSSA;
 236:Generated_Source\PSoC4/PGA_1.c ****     }
 237:Generated_Source\PSoC4/PGA_1.c **** #endif /* Vref Internal */
 238:Generated_Source\PSoC4/PGA_1.c ****     
 239:Generated_Source\PSoC4/PGA_1.c ****     /* Set the OA compensation capacitor value */
 240:Generated_Source\PSoC4/PGA_1.c ****     PGA_1_OA_COMP_TRIM_REG = PGA_1_GET_OA_COMP_TRIM;
 240              		.loc 1 240 0
 241 0048 3B68     		ldr	r3, [r7]
 242 004a 5A0C     		lsrs	r2, r3, #17
 243 004c 1140     		ands	r1, r2
 244 004e 2340     		ands	r3, r4
 245 0050 5A1E     		subs	r2, r3, #1
 246 0052 4B00     		lsls	r3, r1, #1
 247 0054 5B18     		adds	r3, r3, r1
 248 0056 9B18     		adds	r3, r3, r2
 249 0058 9B00     		lsls	r3, r3, #2
 250 005a 5B59     		ldr	r3, [r3, r5]
 251 005c 1C40     		ands	r4, r3
 252 005e 064B     		ldr	r3, .L11+20
 253 0060 1C60     		str	r4, [r3]
 241:Generated_Source\PSoC4/PGA_1.c **** }
 254              		.loc 1 241 0
 255              		@ sp needed
 256 0062 F0BD     		pop	{r4, r5, r6, r7, pc}
 257              	.L12:
 258              		.align	2
 259              	.L11:
 260 0064 00000000 		.word	.LANCHOR0
 261 0068 FFFFF0FF 		.word	-983041
 262 006c 08003040 		.word	1076887560
 263 0070 FFFFF0F0 		.word	-252641281
 264 0074 00000000 		.word	.LANCHOR1
 265 0078 140F3040 		.word	1076891412
 266              		.cfi_endproc
 267              	.LFE5:
 268              		.size	PGA_1_SetGain, .-PGA_1_SetGain
 269              		.section	.text.PGA_1_Init,"ax",%progbits
 270              		.align	2
 271              		.global	PGA_1_Init
ARM GAS  C:\Users\Crowling\AppData\Local\Temp\ccQ9kA97.s 			page 10


 272              		.code	16
 273              		.thumb_func
 274              		.type	PGA_1_Init, %function
 275              	PGA_1_Init:
 276              	.LFB0:
  70:Generated_Source\PSoC4/PGA_1.c ****     /* Set default internal variable value */
 277              		.loc 1 70 0
 278              		.cfi_startproc
 279              		@ args = 0, pretend = 0, frame = 0
 280              		@ frame_needed = 0, uses_anonymous_args = 0
 281 0000 10B5     		push	{r4, lr}
 282              		.cfi_def_cfa_offset 8
 283              		.cfi_offset 4, -8
 284              		.cfi_offset 14, -4
  72:Generated_Source\PSoC4/PGA_1.c ****     
 285              		.loc 1 72 0
 286 0002 0321     		movs	r1, #3
 287 0004 0D4B     		ldr	r3, .L15
 288 0006 1960     		str	r1, [r3]
  75:Generated_Source\PSoC4/PGA_1.c ****     PGA_1_OA_RES_CTRL_REG &= (uint32) ~PGA_1_DEFAULT_OA_RES_CTRL_MASK;
 289              		.loc 1 75 0
 290 0008 0D4A     		ldr	r2, .L15+4
 291 000a 1368     		ldr	r3, [r2]
 292 000c 8020     		movs	r0, #128
 293 000e 0006     		lsls	r0, r0, #24
 294 0010 0343     		orrs	r3, r0
 295 0012 1360     		str	r3, [r2]
  76:Generated_Source\PSoC4/PGA_1.c ****     PGA_1_OA_RES_CTRL_REG |= PGA_1_DEFAULT_OA_RES_CTRL;
 296              		.loc 1 76 0
 297 0014 0B4B     		ldr	r3, .L15+8
 298 0016 1868     		ldr	r0, [r3]
 299 0018 0B4A     		ldr	r2, .L15+12
 300 001a 0240     		ands	r2, r0
 301 001c 1A60     		str	r2, [r3]
  77:Generated_Source\PSoC4/PGA_1.c ****     
 302              		.loc 1 77 0
 303 001e 1A68     		ldr	r2, [r3]
 304 0020 8020     		movs	r0, #128
 305 0022 0001     		lsls	r0, r0, #4
 306 0024 0243     		orrs	r2, r0
 307 0026 1A60     		str	r2, [r3]
  80:Generated_Source\PSoC4/PGA_1.c ****     {
 308              		.loc 1 80 0
 309 0028 1B68     		ldr	r3, [r3]
 310 002a 1942     		tst	r1, r3
 311 002c 01D0     		beq	.L14
  83:Generated_Source\PSoC4/PGA_1.c ****     }
 312              		.loc 1 83 0
 313 002e FFF7FEFF 		bl	PGA_1_Enable
 314              	.LVL9:
 315              	.L14:
  87:Generated_Source\PSoC4/PGA_1.c **** }
 316              		.loc 1 87 0
 317 0032 0020     		movs	r0, #0
 318 0034 FFF7FEFF 		bl	PGA_1_SetGain
 319              	.LVL10:
  88:Generated_Source\PSoC4/PGA_1.c **** 
ARM GAS  C:\Users\Crowling\AppData\Local\Temp\ccQ9kA97.s 			page 11


 320              		.loc 1 88 0
 321              		@ sp needed
 322 0038 10BD     		pop	{r4, pc}
 323              	.L16:
 324 003a C046     		.align	2
 325              	.L15:
 326 003c 00000000 		.word	.LANCHOR0
 327 0040 00003040 		.word	1076887552
 328 0044 08003040 		.word	1076887560
 329 0048 FBF7FFFF 		.word	-2053
 330              		.cfi_endproc
 331              	.LFE0:
 332              		.size	PGA_1_Init, .-PGA_1_Init
 333              		.section	.text.PGA_1_Start,"ax",%progbits
 334              		.align	2
 335              		.global	PGA_1_Start
 336              		.code	16
 337              		.thumb_func
 338              		.type	PGA_1_Start, %function
 339              	PGA_1_Start:
 340              	.LFB2:
 123:Generated_Source\PSoC4/PGA_1.c ****     if(PGA_1_initVar == 0u)
 341              		.loc 1 123 0
 342              		.cfi_startproc
 343              		@ args = 0, pretend = 0, frame = 0
 344              		@ frame_needed = 0, uses_anonymous_args = 0
 345 0000 10B5     		push	{r4, lr}
 346              		.cfi_def_cfa_offset 8
 347              		.cfi_offset 4, -8
 348              		.cfi_offset 14, -4
 124:Generated_Source\PSoC4/PGA_1.c ****     {
 349              		.loc 1 124 0
 350 0002 064B     		ldr	r3, .L19
 351 0004 1B79     		ldrb	r3, [r3, #4]
 352 0006 002B     		cmp	r3, #0
 353 0008 04D1     		bne	.L18
 126:Generated_Source\PSoC4/PGA_1.c ****         PGA_1_initVar = 1u;
 354              		.loc 1 126 0
 355 000a FFF7FEFF 		bl	PGA_1_Init
 356              	.LVL11:
 127:Generated_Source\PSoC4/PGA_1.c ****     }
 357              		.loc 1 127 0
 358 000e 0122     		movs	r2, #1
 359 0010 024B     		ldr	r3, .L19
 360 0012 1A71     		strb	r2, [r3, #4]
 361              	.L18:
 130:Generated_Source\PSoC4/PGA_1.c **** }
 362              		.loc 1 130 0
 363 0014 FFF7FEFF 		bl	PGA_1_Enable
 364              	.LVL12:
 131:Generated_Source\PSoC4/PGA_1.c **** 
 365              		.loc 1 131 0
 366              		@ sp needed
 367 0018 10BD     		pop	{r4, pc}
 368              	.L20:
 369 001a C046     		.align	2
 370              	.L19:
ARM GAS  C:\Users\Crowling\AppData\Local\Temp\ccQ9kA97.s 			page 12


 371 001c 00000000 		.word	.LANCHOR0
 372              		.cfi_endproc
 373              	.LFE2:
 374              		.size	PGA_1_Start, .-PGA_1_Start
 375              		.section	.text.PGA_1_PumpControl,"ax",%progbits
 376              		.align	2
 377              		.global	PGA_1_PumpControl
 378              		.code	16
 379              		.thumb_func
 380              		.type	PGA_1_PumpControl, %function
 381              	PGA_1_PumpControl:
 382              	.LFB6:
 242:Generated_Source\PSoC4/PGA_1.c **** 
 243:Generated_Source\PSoC4/PGA_1.c **** 
 244:Generated_Source\PSoC4/PGA_1.c **** /*******************************************************************************
 245:Generated_Source\PSoC4/PGA_1.c **** * Function Name: PGA_1_PumpControl
 246:Generated_Source\PSoC4/PGA_1.c **** ****************************************************************************//**
 247:Generated_Source\PSoC4/PGA_1.c **** *
 248:Generated_Source\PSoC4/PGA_1.c **** *  Allows the user to turn the amplifier's boost pump on or off.
 249:Generated_Source\PSoC4/PGA_1.c **** *  By Default the PGA_1_Init() function turns the pump on.
 250:Generated_Source\PSoC4/PGA_1.c **** *  Charge-pump must be turned on to provide
 251:Generated_Source\PSoC4/PGA_1.c **** *  rail-rail input common mode. Each op amp has a charge pump that can be
 252:Generated_Source\PSoC4/PGA_1.c **** *  controlled individually. The pump can be turned off for low input range
 253:Generated_Source\PSoC4/PGA_1.c **** *  levels. When the pump is turned off, the pump supply will be shorted to vdda.
 254:Generated_Source\PSoC4/PGA_1.c **** *  Shutting down the charge pump allows the op-amp to achieve low power modes.
 255:Generated_Source\PSoC4/PGA_1.c **** *  
 256:Generated_Source\PSoC4/PGA_1.c **** * \param onOff
 257:Generated_Source\PSoC4/PGA_1.c **** *  The boost pump setting. Possible values:
 258:Generated_Source\PSoC4/PGA_1.c **** *   * PGA_1_BOOST_OFF - Turn off the pump.
 259:Generated_Source\PSoC4/PGA_1.c **** *   * PGA_1_BOOST_ON  - Turn on the pump.
 260:Generated_Source\PSoC4/PGA_1.c **** *
 261:Generated_Source\PSoC4/PGA_1.c **** **********************************************************************************/
 262:Generated_Source\PSoC4/PGA_1.c **** void PGA_1_PumpControl(uint32 onOff)
 263:Generated_Source\PSoC4/PGA_1.c **** {
 383              		.loc 1 263 0
 384              		.cfi_startproc
 385              		@ args = 0, pretend = 0, frame = 0
 386              		@ frame_needed = 0, uses_anonymous_args = 0
 387              		@ link register save eliminated.
 388              	.LVL13:
 264:Generated_Source\PSoC4/PGA_1.c ****     if(onOff == PGA_1_BOOST_ON)
 389              		.loc 1 264 0
 390 0000 0128     		cmp	r0, #1
 391 0002 06D1     		bne	.L22
 265:Generated_Source\PSoC4/PGA_1.c ****     {
 266:Generated_Source\PSoC4/PGA_1.c ****         PGA_1_OA_RES_CTRL_REG |= PGA_1_OA_PUMP_EN;
 392              		.loc 1 266 0
 393 0004 064A     		ldr	r2, .L24
 394 0006 1368     		ldr	r3, [r2]
 395 0008 8021     		movs	r1, #128
 396 000a 0901     		lsls	r1, r1, #4
 397 000c 0B43     		orrs	r3, r1
 398 000e 1360     		str	r3, [r2]
 399 0010 04E0     		b	.L21
 400              	.L22:
 267:Generated_Source\PSoC4/PGA_1.c ****     }
 268:Generated_Source\PSoC4/PGA_1.c ****     else
ARM GAS  C:\Users\Crowling\AppData\Local\Temp\ccQ9kA97.s 			page 13


 269:Generated_Source\PSoC4/PGA_1.c ****     {
 270:Generated_Source\PSoC4/PGA_1.c ****         PGA_1_OA_RES_CTRL_REG &= (uint32)~PGA_1_OA_PUMP_EN;
 401              		.loc 1 270 0
 402 0012 034A     		ldr	r2, .L24
 403 0014 1168     		ldr	r1, [r2]
 404 0016 034B     		ldr	r3, .L24+4
 405 0018 0B40     		ands	r3, r1
 406 001a 1360     		str	r3, [r2]
 407              	.L21:
 271:Generated_Source\PSoC4/PGA_1.c ****     }
 272:Generated_Source\PSoC4/PGA_1.c **** }
 408              		.loc 1 272 0
 409              		@ sp needed
 410 001c 7047     		bx	lr
 411              	.L25:
 412 001e C046     		.align	2
 413              	.L24:
 414 0020 08003040 		.word	1076887560
 415 0024 FFF7FFFF 		.word	-2049
 416              		.cfi_endproc
 417              	.LFE6:
 418              		.size	PGA_1_PumpControl, .-PGA_1_PumpControl
 419              		.global	PGA_1_compTab
 420              		.global	PGA_1_internalGainPower
 421              		.global	PGA_1_initVar
 422              		.section	.rodata
 423              		.align	2
 424              		.set	.LANCHOR1,. + 0
 425              		.type	PGA_1_compTab, %object
 426              		.size	PGA_1_compTab, 72
 427              	PGA_1_compTab:
 428 0000 0200000F 		.word	251658242
 429 0004 0200000F 		.word	251658242
 430 0008 0200000F 		.word	251658242
 431 000c 02000008 		.word	134217730
 432 0010 02000009 		.word	150994946
 433 0014 02000009 		.word	150994946
 434 0018 01000003 		.word	50331649
 435 001c 02000005 		.word	83886082
 436 0020 02000004 		.word	67108866
 437 0024 01000000 		.word	1
 438 0028 02000002 		.word	33554434
 439 002c 02000003 		.word	50331650
 440 0030 01000000 		.word	1
 441 0034 02000000 		.word	2
 442 0038 02000001 		.word	16777218
 443 003c 01000000 		.word	1
 444 0040 01000000 		.word	1
 445 0044 01000000 		.word	1
 446              		.bss
 447              		.align	2
 448              		.set	.LANCHOR0,. + 0
 449              		.type	PGA_1_internalGainPower, %object
 450              		.size	PGA_1_internalGainPower, 4
 451              	PGA_1_internalGainPower:
 452 0000 00000000 		.space	4
 453              		.type	PGA_1_initVar, %object
ARM GAS  C:\Users\Crowling\AppData\Local\Temp\ccQ9kA97.s 			page 14


 454              		.size	PGA_1_initVar, 1
 455              	PGA_1_initVar:
 456 0004 00       		.space	1
 457              		.text
 458              	.Letext0:
 459              		.file 2 "Generated_Source\\PSoC4\\cytypes.h"