ARM GAS  C:\Users\samue\AppData\Local\Temp\cca5sMlH.s 			page 1


   1              		.syntax unified
   2              		.cpu cortex-m0plus
   3              		.fpu softvfp
   4              		.eabi_attribute 20, 1
   5              		.eabi_attribute 21, 1
   6              		.eabi_attribute 23, 3
   7              		.eabi_attribute 24, 1
   8              		.eabi_attribute 25, 1
   9              		.eabi_attribute 26, 1
  10              		.eabi_attribute 30, 1
  11              		.eabi_attribute 34, 0
  12              		.eabi_attribute 18, 4
  13              		.thumb
  14              		.syntax unified
  15              		.file	"AMux_1.c"
  16              		.text
  17              	.Ltext0:
  18              		.cfi_sections	.debug_frame
  19              		.section	.text.AMux_1_Start,"ax",%progbits
  20              		.align	2
  21              		.global	AMux_1_Start
  22              		.code	16
  23              		.thumb_func
  24              		.type	AMux_1_Start, %function
  25              	AMux_1_Start:
  26              	.LFB0:
  27              		.file 1 "Generated_Source\\PSoC4\\AMux_1.c"
   1:Generated_Source\PSoC4/AMux_1.c **** /*******************************************************************************
   2:Generated_Source\PSoC4/AMux_1.c **** * File Name: AMux_1.c
   3:Generated_Source\PSoC4/AMux_1.c **** * Version 1.80
   4:Generated_Source\PSoC4/AMux_1.c **** *
   5:Generated_Source\PSoC4/AMux_1.c **** *  Description:
   6:Generated_Source\PSoC4/AMux_1.c **** *    This file contains all functions required for the analog multiplexer
   7:Generated_Source\PSoC4/AMux_1.c **** *    AMux User Module.
   8:Generated_Source\PSoC4/AMux_1.c **** *
   9:Generated_Source\PSoC4/AMux_1.c **** *   Note:
  10:Generated_Source\PSoC4/AMux_1.c **** *
  11:Generated_Source\PSoC4/AMux_1.c **** *******************************************************************************
  12:Generated_Source\PSoC4/AMux_1.c **** * Copyright 2008-2010, Cypress Semiconductor Corporation.  All rights reserved.
  13:Generated_Source\PSoC4/AMux_1.c **** * You may use this file only in accordance with the license, terms, conditions, 
  14:Generated_Source\PSoC4/AMux_1.c **** * disclaimers, and limitations in the end user license agreement accompanying 
  15:Generated_Source\PSoC4/AMux_1.c **** * the software package with which this file was provided.
  16:Generated_Source\PSoC4/AMux_1.c **** ********************************************************************************/
  17:Generated_Source\PSoC4/AMux_1.c **** 
  18:Generated_Source\PSoC4/AMux_1.c **** #include "AMux_1.h"
  19:Generated_Source\PSoC4/AMux_1.c **** 
  20:Generated_Source\PSoC4/AMux_1.c **** static uint8 AMux_1_lastChannel = AMux_1_NULL_CHANNEL;
  21:Generated_Source\PSoC4/AMux_1.c **** 
  22:Generated_Source\PSoC4/AMux_1.c **** 
  23:Generated_Source\PSoC4/AMux_1.c **** /*******************************************************************************
  24:Generated_Source\PSoC4/AMux_1.c **** * Function Name: AMux_1_Start
  25:Generated_Source\PSoC4/AMux_1.c **** ********************************************************************************
  26:Generated_Source\PSoC4/AMux_1.c **** * Summary:
  27:Generated_Source\PSoC4/AMux_1.c **** *  Disconnect all channels.
  28:Generated_Source\PSoC4/AMux_1.c **** *
  29:Generated_Source\PSoC4/AMux_1.c **** * Parameters:
  30:Generated_Source\PSoC4/AMux_1.c **** *  void
ARM GAS  C:\Users\samue\AppData\Local\Temp\cca5sMlH.s 			page 2


  31:Generated_Source\PSoC4/AMux_1.c **** *
  32:Generated_Source\PSoC4/AMux_1.c **** * Return:
  33:Generated_Source\PSoC4/AMux_1.c **** *  void
  34:Generated_Source\PSoC4/AMux_1.c **** *
  35:Generated_Source\PSoC4/AMux_1.c **** *******************************************************************************/
  36:Generated_Source\PSoC4/AMux_1.c **** void AMux_1_Start(void) 
  37:Generated_Source\PSoC4/AMux_1.c **** {
  28              		.loc 1 37 0
  29              		.cfi_startproc
  30              		@ args = 0, pretend = 0, frame = 0
  31              		@ frame_needed = 0, uses_anonymous_args = 0
  32 0000 10B5     		push	{r4, lr}
  33              		.cfi_def_cfa_offset 8
  34              		.cfi_offset 4, -8
  35              		.cfi_offset 14, -4
  36              	.LVL0:
  38:Generated_Source\PSoC4/AMux_1.c ****     uint8 chan;
  39:Generated_Source\PSoC4/AMux_1.c **** 
  40:Generated_Source\PSoC4/AMux_1.c ****     for(chan = 0u; chan < AMux_1_CHANNELS ; chan++)
  37              		.loc 1 40 0
  38 0002 0024     		movs	r4, #0
  39 0004 07E0     		b	.L2
  40              	.LVL1:
  41              	.L3:
  41:Generated_Source\PSoC4/AMux_1.c ****     {
  42:Generated_Source\PSoC4/AMux_1.c **** #if (AMux_1_MUXTYPE == AMux_1_MUX_SINGLE)
  43:Generated_Source\PSoC4/AMux_1.c ****         AMux_1_Unset(chan);
  44:Generated_Source\PSoC4/AMux_1.c **** #else
  45:Generated_Source\PSoC4/AMux_1.c ****         AMux_1_CYAMUXSIDE_A_Unset(chan);
  42              		.loc 1 45 0 discriminator 3
  43 0006 2000     		movs	r0, r4
  44 0008 FFF7FEFF 		bl	AMux_1_CYAMUXSIDE_A_Unset
  45              	.LVL2:
  46:Generated_Source\PSoC4/AMux_1.c ****         AMux_1_CYAMUXSIDE_B_Unset(chan);
  46              		.loc 1 46 0 discriminator 3
  47 000c 2000     		movs	r0, r4
  48 000e FFF7FEFF 		bl	AMux_1_CYAMUXSIDE_B_Unset
  49              	.LVL3:
  40:Generated_Source\PSoC4/AMux_1.c ****     {
  50              		.loc 1 40 0 discriminator 3
  51 0012 0134     		adds	r4, r4, #1
  52              	.LVL4:
  53 0014 E4B2     		uxtb	r4, r4
  54              	.LVL5:
  55              	.L2:
  40:Generated_Source\PSoC4/AMux_1.c ****     {
  56              		.loc 1 40 0 is_stmt 0 discriminator 1
  57 0016 202C     		cmp	r4, #32
  58 0018 F5D9     		bls	.L3
  47:Generated_Source\PSoC4/AMux_1.c **** #endif
  48:Generated_Source\PSoC4/AMux_1.c ****     }
  49:Generated_Source\PSoC4/AMux_1.c **** 
  50:Generated_Source\PSoC4/AMux_1.c ****     AMux_1_lastChannel = AMux_1_NULL_CHANNEL;
  59              		.loc 1 50 0 is_stmt 1
  60 001a FF22     		movs	r2, #255
  61 001c 014B     		ldr	r3, .L4
  62 001e 1A70     		strb	r2, [r3]
ARM GAS  C:\Users\samue\AppData\Local\Temp\cca5sMlH.s 			page 3


  51:Generated_Source\PSoC4/AMux_1.c **** }
  63              		.loc 1 51 0
  64              		@ sp needed
  65              	.LVL6:
  66 0020 10BD     		pop	{r4, pc}
  67              	.L5:
  68 0022 C046     		.align	2
  69              	.L4:
  70 0024 00000000 		.word	.LANCHOR0
  71              		.cfi_endproc
  72              	.LFE0:
  73              		.size	AMux_1_Start, .-AMux_1_Start
  74              		.section	.text.AMux_1_Connect,"ax",%progbits
  75              		.align	2
  76              		.global	AMux_1_Connect
  77              		.code	16
  78              		.thumb_func
  79              		.type	AMux_1_Connect, %function
  80              	AMux_1_Connect:
  81              	.LFB3:
  52:Generated_Source\PSoC4/AMux_1.c **** 
  53:Generated_Source\PSoC4/AMux_1.c **** 
  54:Generated_Source\PSoC4/AMux_1.c **** #if (!AMux_1_ATMOSTONE)
  55:Generated_Source\PSoC4/AMux_1.c **** /*******************************************************************************
  56:Generated_Source\PSoC4/AMux_1.c **** * Function Name: AMux_1_Select
  57:Generated_Source\PSoC4/AMux_1.c **** ********************************************************************************
  58:Generated_Source\PSoC4/AMux_1.c **** * Summary:
  59:Generated_Source\PSoC4/AMux_1.c **** *  This functions first disconnects all channels then connects the given
  60:Generated_Source\PSoC4/AMux_1.c **** *  channel.
  61:Generated_Source\PSoC4/AMux_1.c **** *
  62:Generated_Source\PSoC4/AMux_1.c **** * Parameters:
  63:Generated_Source\PSoC4/AMux_1.c **** *  channel:  The channel to connect to the common terminal.
  64:Generated_Source\PSoC4/AMux_1.c **** *
  65:Generated_Source\PSoC4/AMux_1.c **** * Return:
  66:Generated_Source\PSoC4/AMux_1.c **** *  void
  67:Generated_Source\PSoC4/AMux_1.c **** *
  68:Generated_Source\PSoC4/AMux_1.c **** *******************************************************************************/
  69:Generated_Source\PSoC4/AMux_1.c **** void AMux_1_Select(uint8 channel) 
  70:Generated_Source\PSoC4/AMux_1.c **** {
  71:Generated_Source\PSoC4/AMux_1.c ****     AMux_1_DisconnectAll();        /* Disconnect all previous connections */
  72:Generated_Source\PSoC4/AMux_1.c ****     AMux_1_Connect(channel);       /* Make the given selection */
  73:Generated_Source\PSoC4/AMux_1.c ****     AMux_1_lastChannel = channel;  /* Update last channel */
  74:Generated_Source\PSoC4/AMux_1.c **** }
  75:Generated_Source\PSoC4/AMux_1.c **** #endif
  76:Generated_Source\PSoC4/AMux_1.c **** 
  77:Generated_Source\PSoC4/AMux_1.c **** 
  78:Generated_Source\PSoC4/AMux_1.c **** /*******************************************************************************
  79:Generated_Source\PSoC4/AMux_1.c **** * Function Name: AMux_1_FastSelect
  80:Generated_Source\PSoC4/AMux_1.c **** ********************************************************************************
  81:Generated_Source\PSoC4/AMux_1.c **** * Summary:
  82:Generated_Source\PSoC4/AMux_1.c **** *  This function first disconnects the last connection made with FastSelect or
  83:Generated_Source\PSoC4/AMux_1.c **** *  Select, then connects the given channel. The FastSelect function is similar
  84:Generated_Source\PSoC4/AMux_1.c **** *  to the Select function, except it is faster since it only disconnects the
  85:Generated_Source\PSoC4/AMux_1.c **** *  last channel selected rather than all channels.
  86:Generated_Source\PSoC4/AMux_1.c **** *
  87:Generated_Source\PSoC4/AMux_1.c **** * Parameters:
  88:Generated_Source\PSoC4/AMux_1.c **** *  channel:  The channel to connect to the common terminal.
ARM GAS  C:\Users\samue\AppData\Local\Temp\cca5sMlH.s 			page 4


  89:Generated_Source\PSoC4/AMux_1.c **** *
  90:Generated_Source\PSoC4/AMux_1.c **** * Return:
  91:Generated_Source\PSoC4/AMux_1.c **** *  void
  92:Generated_Source\PSoC4/AMux_1.c **** *
  93:Generated_Source\PSoC4/AMux_1.c **** *******************************************************************************/
  94:Generated_Source\PSoC4/AMux_1.c **** void AMux_1_FastSelect(uint8 channel) 
  95:Generated_Source\PSoC4/AMux_1.c **** {
  96:Generated_Source\PSoC4/AMux_1.c ****     /* Disconnect the last valid channel */
  97:Generated_Source\PSoC4/AMux_1.c ****     if( AMux_1_lastChannel != AMux_1_NULL_CHANNEL)
  98:Generated_Source\PSoC4/AMux_1.c ****     {
  99:Generated_Source\PSoC4/AMux_1.c ****         AMux_1_Disconnect(AMux_1_lastChannel);
 100:Generated_Source\PSoC4/AMux_1.c ****     }
 101:Generated_Source\PSoC4/AMux_1.c **** 
 102:Generated_Source\PSoC4/AMux_1.c ****     /* Make the new channel connection */
 103:Generated_Source\PSoC4/AMux_1.c **** #if (AMux_1_MUXTYPE == AMux_1_MUX_SINGLE)
 104:Generated_Source\PSoC4/AMux_1.c ****     AMux_1_Set(channel);
 105:Generated_Source\PSoC4/AMux_1.c **** #else
 106:Generated_Source\PSoC4/AMux_1.c ****     AMux_1_CYAMUXSIDE_A_Set(channel);
 107:Generated_Source\PSoC4/AMux_1.c ****     AMux_1_CYAMUXSIDE_B_Set(channel);
 108:Generated_Source\PSoC4/AMux_1.c **** #endif
 109:Generated_Source\PSoC4/AMux_1.c **** 
 110:Generated_Source\PSoC4/AMux_1.c **** 
 111:Generated_Source\PSoC4/AMux_1.c ****     AMux_1_lastChannel = channel;   /* Update last channel */
 112:Generated_Source\PSoC4/AMux_1.c **** }
 113:Generated_Source\PSoC4/AMux_1.c **** 
 114:Generated_Source\PSoC4/AMux_1.c **** 
 115:Generated_Source\PSoC4/AMux_1.c **** #if (AMux_1_MUXTYPE == AMux_1_MUX_DIFF)
 116:Generated_Source\PSoC4/AMux_1.c **** #if (!AMux_1_ATMOSTONE)
 117:Generated_Source\PSoC4/AMux_1.c **** /*******************************************************************************
 118:Generated_Source\PSoC4/AMux_1.c **** * Function Name: AMux_1_Connect
 119:Generated_Source\PSoC4/AMux_1.c **** ********************************************************************************
 120:Generated_Source\PSoC4/AMux_1.c **** * Summary:
 121:Generated_Source\PSoC4/AMux_1.c **** *  This function connects the given channel without affecting other connections.
 122:Generated_Source\PSoC4/AMux_1.c **** *
 123:Generated_Source\PSoC4/AMux_1.c **** * Parameters:
 124:Generated_Source\PSoC4/AMux_1.c **** *  channel:  The channel to connect to the common terminal.
 125:Generated_Source\PSoC4/AMux_1.c **** *
 126:Generated_Source\PSoC4/AMux_1.c **** * Return:
 127:Generated_Source\PSoC4/AMux_1.c **** *  void
 128:Generated_Source\PSoC4/AMux_1.c **** *
 129:Generated_Source\PSoC4/AMux_1.c **** *******************************************************************************/
 130:Generated_Source\PSoC4/AMux_1.c **** void AMux_1_Connect(uint8 channel) 
 131:Generated_Source\PSoC4/AMux_1.c **** {
  82              		.loc 1 131 0
  83              		.cfi_startproc
  84              		@ args = 0, pretend = 0, frame = 0
  85              		@ frame_needed = 0, uses_anonymous_args = 0
  86              	.LVL7:
  87 0000 10B5     		push	{r4, lr}
  88              		.cfi_def_cfa_offset 8
  89              		.cfi_offset 4, -8
  90              		.cfi_offset 14, -4
  91 0002 0400     		movs	r4, r0
 132:Generated_Source\PSoC4/AMux_1.c ****     AMux_1_CYAMUXSIDE_A_Set(channel);
  92              		.loc 1 132 0
  93 0004 FFF7FEFF 		bl	AMux_1_CYAMUXSIDE_A_Set
  94              	.LVL8:
ARM GAS  C:\Users\samue\AppData\Local\Temp\cca5sMlH.s 			page 5


 133:Generated_Source\PSoC4/AMux_1.c ****     AMux_1_CYAMUXSIDE_B_Set(channel);
  95              		.loc 1 133 0
  96 0008 2000     		movs	r0, r4
  97 000a FFF7FEFF 		bl	AMux_1_CYAMUXSIDE_B_Set
  98              	.LVL9:
 134:Generated_Source\PSoC4/AMux_1.c **** }
  99              		.loc 1 134 0
 100              		@ sp needed
 101 000e 10BD     		pop	{r4, pc}
 102              		.cfi_endproc
 103              	.LFE3:
 104              		.size	AMux_1_Connect, .-AMux_1_Connect
 105              		.section	.text.AMux_1_Select,"ax",%progbits
 106              		.align	2
 107              		.global	AMux_1_Select
 108              		.code	16
 109              		.thumb_func
 110              		.type	AMux_1_Select, %function
 111              	AMux_1_Select:
 112              	.LFB1:
  70:Generated_Source\PSoC4/AMux_1.c ****     AMux_1_DisconnectAll();        /* Disconnect all previous connections */
 113              		.loc 1 70 0
 114              		.cfi_startproc
 115              		@ args = 0, pretend = 0, frame = 0
 116              		@ frame_needed = 0, uses_anonymous_args = 0
 117              	.LVL10:
 118 0000 10B5     		push	{r4, lr}
 119              		.cfi_def_cfa_offset 8
 120              		.cfi_offset 4, -8
 121              		.cfi_offset 14, -4
 122 0002 0400     		movs	r4, r0
  71:Generated_Source\PSoC4/AMux_1.c ****     AMux_1_Connect(channel);       /* Make the given selection */
 123              		.loc 1 71 0
 124 0004 FFF7FEFF 		bl	AMux_1_Start
 125              	.LVL11:
  72:Generated_Source\PSoC4/AMux_1.c ****     AMux_1_lastChannel = channel;  /* Update last channel */
 126              		.loc 1 72 0
 127 0008 2000     		movs	r0, r4
 128 000a FFF7FEFF 		bl	AMux_1_Connect
 129              	.LVL12:
  73:Generated_Source\PSoC4/AMux_1.c **** }
 130              		.loc 1 73 0
 131 000e 014B     		ldr	r3, .L8
 132 0010 1C70     		strb	r4, [r3]
  74:Generated_Source\PSoC4/AMux_1.c **** #endif
 133              		.loc 1 74 0
 134              		@ sp needed
 135 0012 10BD     		pop	{r4, pc}
 136              	.L9:
 137              		.align	2
 138              	.L8:
 139 0014 00000000 		.word	.LANCHOR0
 140              		.cfi_endproc
 141              	.LFE1:
 142              		.size	AMux_1_Select, .-AMux_1_Select
 143              		.section	.text.AMux_1_Disconnect,"ax",%progbits
 144              		.align	2
ARM GAS  C:\Users\samue\AppData\Local\Temp\cca5sMlH.s 			page 6


 145              		.global	AMux_1_Disconnect
 146              		.code	16
 147              		.thumb_func
 148              		.type	AMux_1_Disconnect, %function
 149              	AMux_1_Disconnect:
 150              	.LFB4:
 135:Generated_Source\PSoC4/AMux_1.c **** #endif
 136:Generated_Source\PSoC4/AMux_1.c **** 
 137:Generated_Source\PSoC4/AMux_1.c **** /*******************************************************************************
 138:Generated_Source\PSoC4/AMux_1.c **** * Function Name: AMux_1_Disconnect
 139:Generated_Source\PSoC4/AMux_1.c **** ********************************************************************************
 140:Generated_Source\PSoC4/AMux_1.c **** * Summary:
 141:Generated_Source\PSoC4/AMux_1.c **** *  This function disconnects the given channel from the common or output
 142:Generated_Source\PSoC4/AMux_1.c **** *  terminal without affecting other connections.
 143:Generated_Source\PSoC4/AMux_1.c **** *
 144:Generated_Source\PSoC4/AMux_1.c **** * Parameters:
 145:Generated_Source\PSoC4/AMux_1.c **** *  channel:  The channel to disconnect from the common terminal.
 146:Generated_Source\PSoC4/AMux_1.c **** *
 147:Generated_Source\PSoC4/AMux_1.c **** * Return:
 148:Generated_Source\PSoC4/AMux_1.c **** *  void
 149:Generated_Source\PSoC4/AMux_1.c **** *
 150:Generated_Source\PSoC4/AMux_1.c **** *******************************************************************************/
 151:Generated_Source\PSoC4/AMux_1.c **** void AMux_1_Disconnect(uint8 channel) 
 152:Generated_Source\PSoC4/AMux_1.c **** {
 151              		.loc 1 152 0
 152              		.cfi_startproc
 153              		@ args = 0, pretend = 0, frame = 0
 154              		@ frame_needed = 0, uses_anonymous_args = 0
 155              	.LVL13:
 156 0000 10B5     		push	{r4, lr}
 157              		.cfi_def_cfa_offset 8
 158              		.cfi_offset 4, -8
 159              		.cfi_offset 14, -4
 160 0002 0400     		movs	r4, r0
 153:Generated_Source\PSoC4/AMux_1.c ****     AMux_1_CYAMUXSIDE_A_Unset(channel);
 161              		.loc 1 153 0
 162 0004 FFF7FEFF 		bl	AMux_1_CYAMUXSIDE_A_Unset
 163              	.LVL14:
 154:Generated_Source\PSoC4/AMux_1.c ****     AMux_1_CYAMUXSIDE_B_Unset(channel);
 164              		.loc 1 154 0
 165 0008 2000     		movs	r0, r4
 166 000a FFF7FEFF 		bl	AMux_1_CYAMUXSIDE_B_Unset
 167              	.LVL15:
 155:Generated_Source\PSoC4/AMux_1.c **** }
 168              		.loc 1 155 0
 169              		@ sp needed
 170 000e 10BD     		pop	{r4, pc}
 171              		.cfi_endproc
 172              	.LFE4:
 173              		.size	AMux_1_Disconnect, .-AMux_1_Disconnect
 174              		.section	.text.AMux_1_FastSelect,"ax",%progbits
 175              		.align	2
 176              		.global	AMux_1_FastSelect
 177              		.code	16
 178              		.thumb_func
 179              		.type	AMux_1_FastSelect, %function
 180              	AMux_1_FastSelect:
ARM GAS  C:\Users\samue\AppData\Local\Temp\cca5sMlH.s 			page 7


 181              	.LFB2:
  95:Generated_Source\PSoC4/AMux_1.c ****     /* Disconnect the last valid channel */
 182              		.loc 1 95 0
 183              		.cfi_startproc
 184              		@ args = 0, pretend = 0, frame = 0
 185              		@ frame_needed = 0, uses_anonymous_args = 0
 186              	.LVL16:
 187 0000 10B5     		push	{r4, lr}
 188              		.cfi_def_cfa_offset 8
 189              		.cfi_offset 4, -8
 190              		.cfi_offset 14, -4
 191 0002 0400     		movs	r4, r0
  97:Generated_Source\PSoC4/AMux_1.c ****     {
 192              		.loc 1 97 0
 193 0004 074B     		ldr	r3, .L13
 194 0006 1878     		ldrb	r0, [r3]
 195              	.LVL17:
 196 0008 FF28     		cmp	r0, #255
 197 000a 01D0     		beq	.L12
  99:Generated_Source\PSoC4/AMux_1.c ****     }
 198              		.loc 1 99 0
 199 000c FFF7FEFF 		bl	AMux_1_Disconnect
 200              	.LVL18:
 201              	.L12:
 106:Generated_Source\PSoC4/AMux_1.c ****     AMux_1_CYAMUXSIDE_B_Set(channel);
 202              		.loc 1 106 0
 203 0010 2000     		movs	r0, r4
 204 0012 FFF7FEFF 		bl	AMux_1_CYAMUXSIDE_A_Set
 205              	.LVL19:
 107:Generated_Source\PSoC4/AMux_1.c **** #endif
 206              		.loc 1 107 0
 207 0016 2000     		movs	r0, r4
 208 0018 FFF7FEFF 		bl	AMux_1_CYAMUXSIDE_B_Set
 209              	.LVL20:
 111:Generated_Source\PSoC4/AMux_1.c **** }
 210              		.loc 1 111 0
 211 001c 014B     		ldr	r3, .L13
 212 001e 1C70     		strb	r4, [r3]
 112:Generated_Source\PSoC4/AMux_1.c **** 
 213              		.loc 1 112 0
 214              		@ sp needed
 215 0020 10BD     		pop	{r4, pc}
 216              	.L14:
 217 0022 C046     		.align	2
 218              	.L13:
 219 0024 00000000 		.word	.LANCHOR0
 220              		.cfi_endproc
 221              	.LFE2:
 222              		.size	AMux_1_FastSelect, .-AMux_1_FastSelect
 223              		.data
 224              		.set	.LANCHOR0,. + 0
 225              		.type	AMux_1_lastChannel, %object
 226              		.size	AMux_1_lastChannel, 1
 227              	AMux_1_lastChannel:
 228 0000 FF       		.byte	-1
 229              		.text
 230              	.Letext0:
ARM GAS  C:\Users\samue\AppData\Local\Temp\cca5sMlH.s 			page 8


 231              		.file 2 "Generated_Source\\PSoC4\\cyfitter_cfg.h"
 232              		.file 3 "Generated_Source\\PSoC4\\cytypes.h"