ARM GAS  C:\Users\cdrow\AppData\Local\Temp\ccCscaoD.s 			page 1


   1              		.syntax unified
   2              		.cpu cortex-m0plus
   3              		.fpu softvfp
   4              		.eabi_attribute 20, 1
   5              		.eabi_attribute 21, 1
   6              		.eabi_attribute 23, 3
   7              		.eabi_attribute 24, 1
   8              		.eabi_attribute 25, 1
   9              		.eabi_attribute 26, 1
  10              		.eabi_attribute 30, 1
  11              		.eabi_attribute 34, 0
  12              		.eabi_attribute 18, 4
  13              		.thumb
  14              		.syntax unified
  15              		.file	"cyfitter_cfg.c"
  16              		.text
  17              	.Ltext0:
  18              		.cfi_sections	.debug_frame
  19              		.section	.psocinit,"ax",%progbits
  20              		.align	2
  21              		.code	16
  22              		.thumb_func
  23              		.type	ClockSetup, %function
  24              	ClockSetup:
  25              	.LFB4:
  26              		.file 1 "Generated_Source\\PSoC4\\cyfitter_cfg.c"
   1:Generated_Source\PSoC4/cyfitter_cfg.c **** 
   2:Generated_Source\PSoC4/cyfitter_cfg.c **** /*******************************************************************************
   3:Generated_Source\PSoC4/cyfitter_cfg.c **** * File Name: cyfitter_cfg.c
   4:Generated_Source\PSoC4/cyfitter_cfg.c **** * 
   5:Generated_Source\PSoC4/cyfitter_cfg.c **** * PSoC Creator  4.4
   6:Generated_Source\PSoC4/cyfitter_cfg.c **** *
   7:Generated_Source\PSoC4/cyfitter_cfg.c **** * Description:
   8:Generated_Source\PSoC4/cyfitter_cfg.c **** * This file contains device initialization code.
   9:Generated_Source\PSoC4/cyfitter_cfg.c **** * Except for the user defined sections in CyClockStartupError(), this file should not be modified.
  10:Generated_Source\PSoC4/cyfitter_cfg.c **** * This file is automatically generated by PSoC Creator.
  11:Generated_Source\PSoC4/cyfitter_cfg.c **** *
  12:Generated_Source\PSoC4/cyfitter_cfg.c **** ********************************************************************************
  13:Generated_Source\PSoC4/cyfitter_cfg.c **** * Copyright (c) 2007-2020 Cypress Semiconductor.  All rights reserved.
  14:Generated_Source\PSoC4/cyfitter_cfg.c **** * You may use this file only in accordance with the license, terms, conditions, 
  15:Generated_Source\PSoC4/cyfitter_cfg.c **** * disclaimers, and limitations in the end user license agreement accompanying 
  16:Generated_Source\PSoC4/cyfitter_cfg.c **** * the software package with which this file was provided.
  17:Generated_Source\PSoC4/cyfitter_cfg.c **** ********************************************************************************/
  18:Generated_Source\PSoC4/cyfitter_cfg.c **** 
  19:Generated_Source\PSoC4/cyfitter_cfg.c **** #include <string.h>
  20:Generated_Source\PSoC4/cyfitter_cfg.c **** #include "cytypes.h"
  21:Generated_Source\PSoC4/cyfitter_cfg.c **** #include "cydevice_trm.h"
  22:Generated_Source\PSoC4/cyfitter_cfg.c **** #include "cyfitter.h"
  23:Generated_Source\PSoC4/cyfitter_cfg.c **** #include "CyLib.h"
  24:Generated_Source\PSoC4/cyfitter_cfg.c **** #include "CyLFClk.h"
  25:Generated_Source\PSoC4/cyfitter_cfg.c **** #include "cyfitter_cfg.h"
  26:Generated_Source\PSoC4/cyfitter_cfg.c **** #include "cyapicallbacks.h"
  27:Generated_Source\PSoC4/cyfitter_cfg.c **** 
  28:Generated_Source\PSoC4/cyfitter_cfg.c **** 
  29:Generated_Source\PSoC4/cyfitter_cfg.c **** #if defined(__GNUC__) || defined(__ARMCC_VERSION)
  30:Generated_Source\PSoC4/cyfitter_cfg.c ****     #define CYPACKED 
  31:Generated_Source\PSoC4/cyfitter_cfg.c ****     #define CYPACKED_ATTR __attribute__ ((packed))
ARM GAS  C:\Users\cdrow\AppData\Local\Temp\ccCscaoD.s 			page 2


  32:Generated_Source\PSoC4/cyfitter_cfg.c ****     #define CYALIGNED __attribute__ ((aligned))
  33:Generated_Source\PSoC4/cyfitter_cfg.c ****     #define CY_CFG_UNUSED __attribute__ ((unused))
  34:Generated_Source\PSoC4/cyfitter_cfg.c ****     #ifndef CY_CFG_SECTION
  35:Generated_Source\PSoC4/cyfitter_cfg.c ****         #define CY_CFG_SECTION __attribute__ ((section(".psocinit")))
  36:Generated_Source\PSoC4/cyfitter_cfg.c ****     #endif
  37:Generated_Source\PSoC4/cyfitter_cfg.c ****     
  38:Generated_Source\PSoC4/cyfitter_cfg.c ****     #if defined(__ARMCC_VERSION)
  39:Generated_Source\PSoC4/cyfitter_cfg.c ****         #define CY_CFG_MEMORY_BARRIER() __memory_changed()
  40:Generated_Source\PSoC4/cyfitter_cfg.c ****     #else
  41:Generated_Source\PSoC4/cyfitter_cfg.c ****         #define CY_CFG_MEMORY_BARRIER() __sync_synchronize()
  42:Generated_Source\PSoC4/cyfitter_cfg.c ****     #endif
  43:Generated_Source\PSoC4/cyfitter_cfg.c ****     
  44:Generated_Source\PSoC4/cyfitter_cfg.c **** #elif defined(__ICCARM__)
  45:Generated_Source\PSoC4/cyfitter_cfg.c ****     #include <intrinsics.h>
  46:Generated_Source\PSoC4/cyfitter_cfg.c **** 
  47:Generated_Source\PSoC4/cyfitter_cfg.c ****     #define CYPACKED __packed
  48:Generated_Source\PSoC4/cyfitter_cfg.c ****     #define CYPACKED_ATTR 
  49:Generated_Source\PSoC4/cyfitter_cfg.c ****     #define CYALIGNED _Pragma("data_alignment=4")
  50:Generated_Source\PSoC4/cyfitter_cfg.c ****     #define CY_CFG_UNUSED _Pragma("diag_suppress=Pe177")
  51:Generated_Source\PSoC4/cyfitter_cfg.c ****     #define CY_CFG_SECTION _Pragma("location=\".psocinit\"")
  52:Generated_Source\PSoC4/cyfitter_cfg.c ****     
  53:Generated_Source\PSoC4/cyfitter_cfg.c ****     #define CY_CFG_MEMORY_BARRIER() __DMB()
  54:Generated_Source\PSoC4/cyfitter_cfg.c ****     
  55:Generated_Source\PSoC4/cyfitter_cfg.c **** #else
  56:Generated_Source\PSoC4/cyfitter_cfg.c ****     #error Unsupported toolchain
  57:Generated_Source\PSoC4/cyfitter_cfg.c **** #endif
  58:Generated_Source\PSoC4/cyfitter_cfg.c **** 
  59:Generated_Source\PSoC4/cyfitter_cfg.c **** #ifndef CYCODE
  60:Generated_Source\PSoC4/cyfitter_cfg.c ****     #define CYCODE
  61:Generated_Source\PSoC4/cyfitter_cfg.c **** #endif
  62:Generated_Source\PSoC4/cyfitter_cfg.c **** #ifndef CYDATA
  63:Generated_Source\PSoC4/cyfitter_cfg.c ****     #define CYDATA
  64:Generated_Source\PSoC4/cyfitter_cfg.c **** #endif
  65:Generated_Source\PSoC4/cyfitter_cfg.c **** #ifndef CYFAR
  66:Generated_Source\PSoC4/cyfitter_cfg.c ****     #define CYFAR
  67:Generated_Source\PSoC4/cyfitter_cfg.c **** #endif
  68:Generated_Source\PSoC4/cyfitter_cfg.c **** #ifndef CYXDATA
  69:Generated_Source\PSoC4/cyfitter_cfg.c ****     #define CYXDATA
  70:Generated_Source\PSoC4/cyfitter_cfg.c **** #endif
  71:Generated_Source\PSoC4/cyfitter_cfg.c **** 
  72:Generated_Source\PSoC4/cyfitter_cfg.c **** 
  73:Generated_Source\PSoC4/cyfitter_cfg.c **** CY_CFG_UNUSED
  74:Generated_Source\PSoC4/cyfitter_cfg.c **** static void CYMEMZERO(void *s, size_t n);
  75:Generated_Source\PSoC4/cyfitter_cfg.c **** CY_CFG_UNUSED
  76:Generated_Source\PSoC4/cyfitter_cfg.c **** static void CYMEMZERO(void *s, size_t n)
  77:Generated_Source\PSoC4/cyfitter_cfg.c **** {
  78:Generated_Source\PSoC4/cyfitter_cfg.c **** 	(void)memset(s, 0, n);
  79:Generated_Source\PSoC4/cyfitter_cfg.c **** }
  80:Generated_Source\PSoC4/cyfitter_cfg.c **** CY_CFG_UNUSED
  81:Generated_Source\PSoC4/cyfitter_cfg.c **** static void CYCONFIGCPY(void *dest, const void *src, size_t n);
  82:Generated_Source\PSoC4/cyfitter_cfg.c **** CY_CFG_UNUSED
  83:Generated_Source\PSoC4/cyfitter_cfg.c **** static void CYCONFIGCPY(void *dest, const void *src, size_t n)
  84:Generated_Source\PSoC4/cyfitter_cfg.c **** {
  85:Generated_Source\PSoC4/cyfitter_cfg.c **** 	(void)memcpy(dest, src, n);
  86:Generated_Source\PSoC4/cyfitter_cfg.c **** }
  87:Generated_Source\PSoC4/cyfitter_cfg.c **** CY_CFG_UNUSED
  88:Generated_Source\PSoC4/cyfitter_cfg.c **** static void CYCONFIGCPYCODE(void *dest, const void *src, size_t n);
ARM GAS  C:\Users\cdrow\AppData\Local\Temp\ccCscaoD.s 			page 3


  89:Generated_Source\PSoC4/cyfitter_cfg.c **** CY_CFG_UNUSED
  90:Generated_Source\PSoC4/cyfitter_cfg.c **** static void CYCONFIGCPYCODE(void *dest, const void *src, size_t n)
  91:Generated_Source\PSoC4/cyfitter_cfg.c **** {
  92:Generated_Source\PSoC4/cyfitter_cfg.c **** 	(void)memcpy(dest, src, n);
  93:Generated_Source\PSoC4/cyfitter_cfg.c **** }
  94:Generated_Source\PSoC4/cyfitter_cfg.c **** 
  95:Generated_Source\PSoC4/cyfitter_cfg.c **** 
  96:Generated_Source\PSoC4/cyfitter_cfg.c **** 
  97:Generated_Source\PSoC4/cyfitter_cfg.c **** 
  98:Generated_Source\PSoC4/cyfitter_cfg.c **** /* Clock startup error codes                                                   */
  99:Generated_Source\PSoC4/cyfitter_cfg.c **** #define CYCLOCKSTART_NO_ERROR    0u
 100:Generated_Source\PSoC4/cyfitter_cfg.c **** #define CYCLOCKSTART_XTAL_ERROR  1u
 101:Generated_Source\PSoC4/cyfitter_cfg.c **** #define CYCLOCKSTART_32KHZ_ERROR 2u
 102:Generated_Source\PSoC4/cyfitter_cfg.c **** #define CYCLOCKSTART_PLL_ERROR   3u
 103:Generated_Source\PSoC4/cyfitter_cfg.c **** #define CYCLOCKSTART_FLL_ERROR   4u
 104:Generated_Source\PSoC4/cyfitter_cfg.c **** #define CYCLOCKSTART_WCO_ERROR   5u
 105:Generated_Source\PSoC4/cyfitter_cfg.c **** 
 106:Generated_Source\PSoC4/cyfitter_cfg.c **** 
 107:Generated_Source\PSoC4/cyfitter_cfg.c **** #ifdef CY_NEED_CYCLOCKSTARTUPERROR
 108:Generated_Source\PSoC4/cyfitter_cfg.c **** /*******************************************************************************
 109:Generated_Source\PSoC4/cyfitter_cfg.c **** * Function Name: CyClockStartupError
 110:Generated_Source\PSoC4/cyfitter_cfg.c **** ********************************************************************************
 111:Generated_Source\PSoC4/cyfitter_cfg.c **** * Summary:
 112:Generated_Source\PSoC4/cyfitter_cfg.c **** *  If an error is encountered during clock configuration (crystal startup error,
 113:Generated_Source\PSoC4/cyfitter_cfg.c **** *  PLL lock error, etc.), the system will end up here.  Unless reimplemented by
 114:Generated_Source\PSoC4/cyfitter_cfg.c **** *  the customer, this function will stop in an infinite loop.
 115:Generated_Source\PSoC4/cyfitter_cfg.c **** *
 116:Generated_Source\PSoC4/cyfitter_cfg.c **** * Parameters:
 117:Generated_Source\PSoC4/cyfitter_cfg.c **** *   void
 118:Generated_Source\PSoC4/cyfitter_cfg.c **** *
 119:Generated_Source\PSoC4/cyfitter_cfg.c **** * Return:
 120:Generated_Source\PSoC4/cyfitter_cfg.c **** *   void
 121:Generated_Source\PSoC4/cyfitter_cfg.c **** *
 122:Generated_Source\PSoC4/cyfitter_cfg.c **** *******************************************************************************/
 123:Generated_Source\PSoC4/cyfitter_cfg.c **** CY_CFG_UNUSED
 124:Generated_Source\PSoC4/cyfitter_cfg.c **** static void CyClockStartupError(uint8 errorCode);
 125:Generated_Source\PSoC4/cyfitter_cfg.c **** CY_CFG_UNUSED
 126:Generated_Source\PSoC4/cyfitter_cfg.c **** static void CyClockStartupError(uint8 errorCode)
 127:Generated_Source\PSoC4/cyfitter_cfg.c **** {
 128:Generated_Source\PSoC4/cyfitter_cfg.c ****     /* To remove the compiler warning if errorCode not used.                */
 129:Generated_Source\PSoC4/cyfitter_cfg.c ****     errorCode = errorCode;
 130:Generated_Source\PSoC4/cyfitter_cfg.c **** 
 131:Generated_Source\PSoC4/cyfitter_cfg.c ****     /* If we have a clock startup error (bad MHz crystal, PLL lock, etc.),  */
 132:Generated_Source\PSoC4/cyfitter_cfg.c ****     /* we will end up here to allow the customer to implement something to  */
 133:Generated_Source\PSoC4/cyfitter_cfg.c ****     /* deal with the clock condition.                                       */
 134:Generated_Source\PSoC4/cyfitter_cfg.c **** 
 135:Generated_Source\PSoC4/cyfitter_cfg.c **** #ifdef CY_CFG_CLOCK_STARTUP_ERROR_CALLBACK
 136:Generated_Source\PSoC4/cyfitter_cfg.c ****     CY_CFG_Clock_Startup_ErrorCallback();
 137:Generated_Source\PSoC4/cyfitter_cfg.c **** #else
 138:Generated_Source\PSoC4/cyfitter_cfg.c ****     /*  If not using CY_CFG_CLOCK_STARTUP_ERROR_CALLBACK, place your clock startup code here. */
 139:Generated_Source\PSoC4/cyfitter_cfg.c ****     /* `#START CyClockStartupError` */
 140:Generated_Source\PSoC4/cyfitter_cfg.c **** 
 141:Generated_Source\PSoC4/cyfitter_cfg.c **** 
 142:Generated_Source\PSoC4/cyfitter_cfg.c **** 
 143:Generated_Source\PSoC4/cyfitter_cfg.c ****     /* `#END` */
 144:Generated_Source\PSoC4/cyfitter_cfg.c **** 
 145:Generated_Source\PSoC4/cyfitter_cfg.c ****     while(1) {}
ARM GAS  C:\Users\cdrow\AppData\Local\Temp\ccCscaoD.s 			page 4


 146:Generated_Source\PSoC4/cyfitter_cfg.c **** #endif /* CY_CFG_CLOCK_STARTUP_ERROR_CALLBACK */
 147:Generated_Source\PSoC4/cyfitter_cfg.c **** }
 148:Generated_Source\PSoC4/cyfitter_cfg.c **** #endif
 149:Generated_Source\PSoC4/cyfitter_cfg.c **** 
 150:Generated_Source\PSoC4/cyfitter_cfg.c **** 
 151:Generated_Source\PSoC4/cyfitter_cfg.c **** 
 152:Generated_Source\PSoC4/cyfitter_cfg.c **** /*******************************************************************************
 153:Generated_Source\PSoC4/cyfitter_cfg.c **** * Function Name: ClockSetup
 154:Generated_Source\PSoC4/cyfitter_cfg.c **** ********************************************************************************
 155:Generated_Source\PSoC4/cyfitter_cfg.c **** *
 156:Generated_Source\PSoC4/cyfitter_cfg.c **** * Summary:
 157:Generated_Source\PSoC4/cyfitter_cfg.c **** *   Performs the initialization of all of the clocks in the device based on the
 158:Generated_Source\PSoC4/cyfitter_cfg.c **** *   settings in the Clock tab of the DWR.  This includes enabling the requested
 159:Generated_Source\PSoC4/cyfitter_cfg.c **** *   clocks and setting the necessary dividers to produce the desired frequency. 
 160:Generated_Source\PSoC4/cyfitter_cfg.c **** *
 161:Generated_Source\PSoC4/cyfitter_cfg.c **** * Parameters:
 162:Generated_Source\PSoC4/cyfitter_cfg.c **** *   void
 163:Generated_Source\PSoC4/cyfitter_cfg.c **** *
 164:Generated_Source\PSoC4/cyfitter_cfg.c **** * Return:
 165:Generated_Source\PSoC4/cyfitter_cfg.c **** *   void
 166:Generated_Source\PSoC4/cyfitter_cfg.c **** *
 167:Generated_Source\PSoC4/cyfitter_cfg.c **** *******************************************************************************/
 168:Generated_Source\PSoC4/cyfitter_cfg.c **** static void ClockSetup(void);
 169:Generated_Source\PSoC4/cyfitter_cfg.c **** CY_CFG_SECTION
 170:Generated_Source\PSoC4/cyfitter_cfg.c **** static void ClockSetup(void)
 171:Generated_Source\PSoC4/cyfitter_cfg.c **** {
  27              		.loc 1 171 0
  28              		.cfi_startproc
  29              		@ args = 0, pretend = 0, frame = 0
  30              		@ frame_needed = 0, uses_anonymous_args = 0
  31 0000 10B5     		push	{r4, lr}
  32              		.cfi_def_cfa_offset 8
  33              		.cfi_offset 4, -8
  34              		.cfi_offset 14, -4
 172:Generated_Source\PSoC4/cyfitter_cfg.c **** 
 173:Generated_Source\PSoC4/cyfitter_cfg.c **** 	/* Set Flash Cycles based on max possible frequency in case a glitch occurs during ClockSetup(). *
 174:Generated_Source\PSoC4/cyfitter_cfg.c **** 	CY_SET_REG32((void CYXDATA *)(CYREG_CPUSS_FLASH_CTL), (0x0012u));
  35              		.loc 1 174 0
  36 0002 1D4C     		ldr	r4, .L2
  37 0004 1223     		movs	r3, #18
  38 0006 2360     		str	r3, [r4]
 175:Generated_Source\PSoC4/cyfitter_cfg.c **** 	/* Update IMO to new clock speed. */
 176:Generated_Source\PSoC4/cyfitter_cfg.c **** 	CySysClkWriteImoFreq(24u);
  39              		.loc 1 176 0
  40 0008 1820     		movs	r0, #24
  41 000a FFF7FEFF 		bl	CySysClkWriteImoFreq
  42              	.LVL0:
 177:Generated_Source\PSoC4/cyfitter_cfg.c **** 
 178:Generated_Source\PSoC4/cyfitter_cfg.c **** 	/* Setup phase aligned clocks */
 179:Generated_Source\PSoC4/cyfitter_cfg.c **** 	CY_SET_REG32((void *)CYREG_PERI_DIV_16_CTL0, 0x00000100u);
  43              		.loc 1 179 0
  44 000e 8022     		movs	r2, #128
  45 0010 5200     		lsls	r2, r2, #1
  46 0012 1A4B     		ldr	r3, .L2+4
  47 0014 1A60     		str	r2, [r3]
 180:Generated_Source\PSoC4/cyfitter_cfg.c **** 	CY_SET_REG32((void *)CYREG_PERI_DIV_CMD, 0x8000FF40u);
  48              		.loc 1 180 0
ARM GAS  C:\Users\cdrow\AppData\Local\Temp\ccCscaoD.s 			page 5


  49 0016 8023     		movs	r3, #128
  50 0018 DB05     		lsls	r3, r3, #23
  51 001a 1949     		ldr	r1, .L2+8
  52 001c 1960     		str	r1, [r3]
 181:Generated_Source\PSoC4/cyfitter_cfg.c **** 	CY_SET_REG32((void *)CYREG_PERI_DIV_16_CTL1, 0x00000100u);
  53              		.loc 1 181 0
  54 001e 1949     		ldr	r1, .L2+12
  55 0020 0A60     		str	r2, [r1]
 182:Generated_Source\PSoC4/cyfitter_cfg.c **** 	CY_SET_REG32((void *)CYREG_PERI_DIV_CMD, 0x8000FF41u);
  56              		.loc 1 182 0
  57 0022 194A     		ldr	r2, .L2+16
  58 0024 1A60     		str	r2, [r3]
 183:Generated_Source\PSoC4/cyfitter_cfg.c **** 	CY_SET_REG32((void *)CYREG_PERI_DIV_16_CTL2, 0x00000E00u);
  59              		.loc 1 183 0
  60 0026 E021     		movs	r1, #224
  61 0028 0901     		lsls	r1, r1, #4
  62 002a 184A     		ldr	r2, .L2+20
  63 002c 1160     		str	r1, [r2]
 184:Generated_Source\PSoC4/cyfitter_cfg.c **** 	CY_SET_REG32((void *)CYREG_PERI_DIV_CMD, 0x8000FF42u);
  64              		.loc 1 184 0
  65 002e 184A     		ldr	r2, .L2+24
  66 0030 1A60     		str	r2, [r3]
 185:Generated_Source\PSoC4/cyfitter_cfg.c **** 	CY_SET_REG32((void *)CYREG_PERI_DIV_16_CTL3, 0x00001000u);
  67              		.loc 1 185 0
  68 0032 8021     		movs	r1, #128
  69 0034 4901     		lsls	r1, r1, #5
  70 0036 174A     		ldr	r2, .L2+28
  71 0038 1160     		str	r1, [r2]
 186:Generated_Source\PSoC4/cyfitter_cfg.c **** 	CY_SET_REG32((void *)CYREG_PERI_DIV_CMD, 0x8000FF43u);
  72              		.loc 1 186 0
  73 003a 174A     		ldr	r2, .L2+32
  74 003c 1A60     		str	r2, [r3]
 187:Generated_Source\PSoC4/cyfitter_cfg.c **** 
 188:Generated_Source\PSoC4/cyfitter_cfg.c **** 	/* CYDEV_CLK_SELECT Starting address: CYDEV_CLK_SELECT */
 189:Generated_Source\PSoC4/cyfitter_cfg.c **** 	CY_SET_REG32((void *)(CYREG_CLK_SELECT), 0x00000020u);
  75              		.loc 1 189 0
  76 003e 2022     		movs	r2, #32
  77 0040 164B     		ldr	r3, .L2+36
  78 0042 1A60     		str	r2, [r3]
 190:Generated_Source\PSoC4/cyfitter_cfg.c **** 
 191:Generated_Source\PSoC4/cyfitter_cfg.c **** 	/* CYDEV_PERI_PCLK_CTL12 Starting address: CYDEV_PERI_PCLK_CTL12 */
 192:Generated_Source\PSoC4/cyfitter_cfg.c **** 	CY_SET_REG32((void *)(CYREG_PERI_PCLK_CTL12), 0x00000041u);
  79              		.loc 1 192 0
  80 0044 2132     		adds	r2, r2, #33
  81 0046 164B     		ldr	r3, .L2+40
  82 0048 1A60     		str	r2, [r3]
 193:Generated_Source\PSoC4/cyfitter_cfg.c **** 
 194:Generated_Source\PSoC4/cyfitter_cfg.c **** 	/* CYDEV_PERI_PCLK_CTL2 Starting address: CYDEV_PERI_PCLK_CTL2 */
 195:Generated_Source\PSoC4/cyfitter_cfg.c **** 	CY_SET_REG32((void *)(CYREG_PERI_PCLK_CTL2), 0x00000042u);
  83              		.loc 1 195 0
  84 004a 0132     		adds	r2, r2, #1
  85 004c 154B     		ldr	r3, .L2+44
  86 004e 1A60     		str	r2, [r3]
 196:Generated_Source\PSoC4/cyfitter_cfg.c **** 
 197:Generated_Source\PSoC4/cyfitter_cfg.c **** 	/* CYDEV_PERI_PCLK_CTL1 Starting address: CYDEV_PERI_PCLK_CTL1 */
 198:Generated_Source\PSoC4/cyfitter_cfg.c **** 	CY_SET_REG32((void *)(CYREG_PERI_PCLK_CTL1), 0x00000043u);
  87              		.loc 1 198 0
ARM GAS  C:\Users\cdrow\AppData\Local\Temp\ccCscaoD.s 			page 6


  88 0050 0132     		adds	r2, r2, #1
  89 0052 154B     		ldr	r3, .L2+48
  90 0054 1A60     		str	r2, [r3]
 199:Generated_Source\PSoC4/cyfitter_cfg.c **** 
 200:Generated_Source\PSoC4/cyfitter_cfg.c **** 	(void)CyIntSetVector(11u, &CySysTimerIsr);
  91              		.loc 1 200 0
  92 0056 1549     		ldr	r1, .L2+52
  93 0058 0B20     		movs	r0, #11
  94 005a FFF7FEFF 		bl	CyIntSetVector
  95              	.LVL1:
 201:Generated_Source\PSoC4/cyfitter_cfg.c **** 	CyIntEnable(11u);
  96              		.loc 1 201 0
  97 005e 0B20     		movs	r0, #11
  98 0060 FFF7FEFF 		bl	CyIntEnable
  99              	.LVL2:
 202:Generated_Source\PSoC4/cyfitter_cfg.c **** 	CY_SET_REG32((void *)(CYREG_WCO_WDT_CONFIG), 0x00000000u);
 100              		.loc 1 202 0
 101 0064 0022     		movs	r2, #0
 102 0066 124B     		ldr	r3, .L2+56
 103 0068 1A60     		str	r2, [r3]
 203:Generated_Source\PSoC4/cyfitter_cfg.c **** 	CySysClkSetTimerSource(CY_SYS_CLK_TIMER_SRC_ILO);
 104              		.loc 1 203 0
 105 006a 0020     		movs	r0, #0
 106 006c FFF7FEFF 		bl	CySysClkSetTimerSource
 107              	.LVL3:
 204:Generated_Source\PSoC4/cyfitter_cfg.c **** 	/* Set Flash Cycles based on newly configured 24.00MHz HFCLK. */
 205:Generated_Source\PSoC4/cyfitter_cfg.c **** 	CY_SET_REG32((void CYXDATA *)(CYREG_CPUSS_FLASH_CTL), (0x0011u));
 108              		.loc 1 205 0
 109 0070 1123     		movs	r3, #17
 110 0072 2360     		str	r3, [r4]
 206:Generated_Source\PSoC4/cyfitter_cfg.c **** }
 111              		.loc 1 206 0
 112              		@ sp needed
 113 0074 10BD     		pop	{r4, pc}
 114              	.L3:
 115 0076 C046     		.align	2
 116              	.L2:
 117 0078 30001040 		.word	1074790448
 118 007c 00030040 		.word	1073742592
 119 0080 40FF0080 		.word	-2147418304
 120 0084 04030040 		.word	1073742596
 121 0088 41FF0080 		.word	-2147418303
 122 008c 08030040 		.word	1073742600
 123 0090 42FF0080 		.word	-2147418302
 124 0094 0C030040 		.word	1073742604
 125 0098 43FF0080 		.word	-2147418301
 126 009c 28000340 		.word	1073938472
 127 00a0 30010040 		.word	1073742128
 128 00a4 08010040 		.word	1073742088
 129 00a8 04010040 		.word	1073742084
 130 00ac 00000000 		.word	CySysTimerIsr
 131 00b0 0C020640 		.word	1074135564
 132              		.cfi_endproc
 133              	.LFE4:
 134              		.size	ClockSetup, .-ClockSetup
 135              		.section	.text.SetAnalogRoutingPumps,"ax",%progbits
 136              		.align	2
ARM GAS  C:\Users\cdrow\AppData\Local\Temp\ccCscaoD.s 			page 7


 137              		.global	SetAnalogRoutingPumps
 138              		.code	16
 139              		.thumb_func
 140              		.type	SetAnalogRoutingPumps, %function
 141              	SetAnalogRoutingPumps:
 142              	.LFB6:
 207:Generated_Source\PSoC4/cyfitter_cfg.c **** 
 208:Generated_Source\PSoC4/cyfitter_cfg.c **** 
 209:Generated_Source\PSoC4/cyfitter_cfg.c **** /* Analog API Functions */
 210:Generated_Source\PSoC4/cyfitter_cfg.c **** 
 211:Generated_Source\PSoC4/cyfitter_cfg.c **** 
 212:Generated_Source\PSoC4/cyfitter_cfg.c **** /*******************************************************************************
 213:Generated_Source\PSoC4/cyfitter_cfg.c **** * Function Name: AnalogSetDefault
 214:Generated_Source\PSoC4/cyfitter_cfg.c **** ********************************************************************************
 215:Generated_Source\PSoC4/cyfitter_cfg.c **** *
 216:Generated_Source\PSoC4/cyfitter_cfg.c **** * Summary:
 217:Generated_Source\PSoC4/cyfitter_cfg.c **** *  Sets up the analog portions of the chip to default values based on chip
 218:Generated_Source\PSoC4/cyfitter_cfg.c **** *  configuration options from the project.
 219:Generated_Source\PSoC4/cyfitter_cfg.c **** *
 220:Generated_Source\PSoC4/cyfitter_cfg.c **** * Parameters:
 221:Generated_Source\PSoC4/cyfitter_cfg.c **** *  void
 222:Generated_Source\PSoC4/cyfitter_cfg.c **** *
 223:Generated_Source\PSoC4/cyfitter_cfg.c **** * Return:
 224:Generated_Source\PSoC4/cyfitter_cfg.c **** *  void
 225:Generated_Source\PSoC4/cyfitter_cfg.c **** *
 226:Generated_Source\PSoC4/cyfitter_cfg.c **** *******************************************************************************/
 227:Generated_Source\PSoC4/cyfitter_cfg.c **** static void AnalogSetDefault(void);
 228:Generated_Source\PSoC4/cyfitter_cfg.c **** static void AnalogSetDefault(void)
 229:Generated_Source\PSoC4/cyfitter_cfg.c **** {
 230:Generated_Source\PSoC4/cyfitter_cfg.c **** 	CY_SET_XTND_REG32((void CYFAR *)CYREG_CTB0_CTB_CTRL, 0x80000000u);
 231:Generated_Source\PSoC4/cyfitter_cfg.c **** 	CY_SET_XTND_REG32((void CYFAR *)CYREG_CTB0_OA0_SW, 0x00080080u);
 232:Generated_Source\PSoC4/cyfitter_cfg.c **** 	CY_SET_XTND_REG32((void CYFAR *)CYREG_CTB0_OA1_SW, 0x00040009u);
 233:Generated_Source\PSoC4/cyfitter_cfg.c **** 	CY_SET_XTND_REG32((void CYFAR *)CYREG_CTB0_CTBBUS_SW, 0x00900000u);
 234:Generated_Source\PSoC4/cyfitter_cfg.c **** 	CY_SET_XTND_REG32((void CYFAR *)CYREG_CTB1_CTB_CTRL, 0x80000000u);
 235:Generated_Source\PSoC4/cyfitter_cfg.c **** 	CY_SET_XTND_REG32((void CYFAR *)CYREG_CTB1_OA1_SW, 0x00040260u);
 236:Generated_Source\PSoC4/cyfitter_cfg.c **** 	CY_SET_XTND_REG32((void CYFAR *)CYREG_ART_CTRL, 0x80000000u);
 237:Generated_Source\PSoC4/cyfitter_cfg.c **** 	CY_SET_XTND_REG32((void CYFAR *)CYREG_ART_SARMUXVPLUS_SW, 0x01000002u);
 238:Generated_Source\PSoC4/cyfitter_cfg.c **** 	CY_SET_XTND_REG32((void CYFAR *)CYREG_ART_SARMUXVMINUS_SW, 0x00000080u);
 239:Generated_Source\PSoC4/cyfitter_cfg.c **** 	CY_SET_XTND_REG32((void CYFAR *)CYREG_ART_SARMUXCOREIO1_SW, 0x02000020u);
 240:Generated_Source\PSoC4/cyfitter_cfg.c **** 	CY_SET_XTND_REG32((void CYFAR *)CYREG_ART_CTB0VREF_SW, 0x00000001u);
 241:Generated_Source\PSoC4/cyfitter_cfg.c **** 	CY_SET_XTND_REG32((void CYFAR *)CYREG_SAR_CTRL, 0x80000000u);
 242:Generated_Source\PSoC4/cyfitter_cfg.c **** 	CY_SET_XTND_REG32((void CYFAR *)CYREG_PASS_PASS_CTRL, 0x00000003u);
 243:Generated_Source\PSoC4/cyfitter_cfg.c **** 	CY_SET_XTND_REG32((void CYFAR *)CYREG_PASS_PRB_CTRL, 0x80000001u);
 244:Generated_Source\PSoC4/cyfitter_cfg.c **** 	CY_SET_XTND_REG32((void CYFAR *)CYREG_PASS_PRB_REF1, 0x000000F1u);
 245:Generated_Source\PSoC4/cyfitter_cfg.c **** 	CY_SET_XTND_REG32((void CYFAR *)CYREG_PASS_DSAB_DSAB_CTRL, 0x00000020u);
 246:Generated_Source\PSoC4/cyfitter_cfg.c **** 	SetAnalogRoutingPumps(1);
 247:Generated_Source\PSoC4/cyfitter_cfg.c **** }
 248:Generated_Source\PSoC4/cyfitter_cfg.c **** 
 249:Generated_Source\PSoC4/cyfitter_cfg.c **** 
 250:Generated_Source\PSoC4/cyfitter_cfg.c **** /*******************************************************************************
 251:Generated_Source\PSoC4/cyfitter_cfg.c **** * Function Name: SetAnalogRoutingPumps
 252:Generated_Source\PSoC4/cyfitter_cfg.c **** ********************************************************************************
 253:Generated_Source\PSoC4/cyfitter_cfg.c **** *
 254:Generated_Source\PSoC4/cyfitter_cfg.c **** * Summary:
 255:Generated_Source\PSoC4/cyfitter_cfg.c **** * Enables or disables the analog pumps feeding analog routing switches.
 256:Generated_Source\PSoC4/cyfitter_cfg.c **** * Intended to be called at startup, based on the Vdda system configuration;
 257:Generated_Source\PSoC4/cyfitter_cfg.c **** * may be called during operation when the user informs us that the Vdda voltage crossed the pump th
ARM GAS  C:\Users\cdrow\AppData\Local\Temp\ccCscaoD.s 			page 8


 258:Generated_Source\PSoC4/cyfitter_cfg.c **** *
 259:Generated_Source\PSoC4/cyfitter_cfg.c **** * Parameters:
 260:Generated_Source\PSoC4/cyfitter_cfg.c **** *  enabled - 1 to enable the pumps, 0 to disable the pumps
 261:Generated_Source\PSoC4/cyfitter_cfg.c **** *
 262:Generated_Source\PSoC4/cyfitter_cfg.c **** * Return:
 263:Generated_Source\PSoC4/cyfitter_cfg.c **** *  void
 264:Generated_Source\PSoC4/cyfitter_cfg.c **** *
 265:Generated_Source\PSoC4/cyfitter_cfg.c **** *******************************************************************************/
 266:Generated_Source\PSoC4/cyfitter_cfg.c **** void SetAnalogRoutingPumps(uint8 enabled)
 267:Generated_Source\PSoC4/cyfitter_cfg.c **** {
 143              		.loc 1 267 0
 144              		.cfi_startproc
 145              		@ args = 0, pretend = 0, frame = 0
 146              		@ frame_needed = 0, uses_anonymous_args = 0
 147              		@ link register save eliminated.
 148              	.LVL4:
 268:Generated_Source\PSoC4/cyfitter_cfg.c **** 	uint32 regValue = CY_GET_XTND_REG32((void *)(CYREG_SAR_PUMP_CTRL));
 149              		.loc 1 268 0
 150 0000 064B     		ldr	r3, .L7
 151 0002 1B68     		ldr	r3, [r3]
 152              	.LVL5:
 269:Generated_Source\PSoC4/cyfitter_cfg.c **** 	if (enabled != 0u)
 153              		.loc 1 269 0
 154 0004 0028     		cmp	r0, #0
 155 0006 03D0     		beq	.L5
 270:Generated_Source\PSoC4/cyfitter_cfg.c **** 	{
 271:Generated_Source\PSoC4/cyfitter_cfg.c **** 		regValue |= 0x80000000u;
 156              		.loc 1 271 0
 157 0008 8022     		movs	r2, #128
 158 000a 1206     		lsls	r2, r2, #24
 159 000c 1343     		orrs	r3, r2
 160              	.LVL6:
 161 000e 01E0     		b	.L6
 162              	.L5:
 272:Generated_Source\PSoC4/cyfitter_cfg.c **** 	}
 273:Generated_Source\PSoC4/cyfitter_cfg.c **** 	else
 274:Generated_Source\PSoC4/cyfitter_cfg.c **** 	{
 275:Generated_Source\PSoC4/cyfitter_cfg.c **** 		regValue &= ~0x80000000u;
 163              		.loc 1 275 0
 164 0010 5B00     		lsls	r3, r3, #1
 165              	.LVL7:
 166 0012 5B08     		lsrs	r3, r3, #1
 167              	.LVL8:
 168              	.L6:
 276:Generated_Source\PSoC4/cyfitter_cfg.c **** 	}
 277:Generated_Source\PSoC4/cyfitter_cfg.c **** 	CY_SET_XTND_REG32((void *)(CYREG_SAR_PUMP_CTRL), regValue);
 169              		.loc 1 277 0
 170 0014 014A     		ldr	r2, .L7
 171 0016 1360     		str	r3, [r2]
 278:Generated_Source\PSoC4/cyfitter_cfg.c **** }
 172              		.loc 1 278 0
 173              		@ sp needed
 174 0018 7047     		bx	lr
 175              	.L8:
 176 001a C046     		.align	2
 177              	.L7:
 178 001c 80033A40 		.word	1077543808
ARM GAS  C:\Users\cdrow\AppData\Local\Temp\ccCscaoD.s 			page 9


 179              		.cfi_endproc
 180              	.LFE6:
 181              		.size	SetAnalogRoutingPumps, .-SetAnalogRoutingPumps
 182              		.section	.text.AnalogSetDefault,"ax",%progbits
 183              		.align	2
 184              		.code	16
 185              		.thumb_func
 186              		.type	AnalogSetDefault, %function
 187              	AnalogSetDefault:
 188              	.LFB5:
 229:Generated_Source\PSoC4/cyfitter_cfg.c **** 	CY_SET_XTND_REG32((void CYFAR *)CYREG_CTB0_CTB_CTRL, 0x80000000u);
 189              		.loc 1 229 0
 190              		.cfi_startproc
 191              		@ args = 0, pretend = 0, frame = 0
 192              		@ frame_needed = 0, uses_anonymous_args = 0
 193 0000 10B5     		push	{r4, lr}
 194              		.cfi_def_cfa_offset 8
 195              		.cfi_offset 4, -8
 196              		.cfi_offset 14, -4
 230:Generated_Source\PSoC4/cyfitter_cfg.c **** 	CY_SET_XTND_REG32((void CYFAR *)CYREG_CTB0_OA0_SW, 0x00080080u);
 197              		.loc 1 230 0
 198 0002 8023     		movs	r3, #128
 199 0004 1B06     		lsls	r3, r3, #24
 200 0006 184A     		ldr	r2, .L10
 201 0008 1360     		str	r3, [r2]
 231:Generated_Source\PSoC4/cyfitter_cfg.c **** 	CY_SET_XTND_REG32((void CYFAR *)CYREG_CTB0_OA1_SW, 0x00040009u);
 202              		.loc 1 231 0
 203 000a 1849     		ldr	r1, .L10+4
 204 000c 184A     		ldr	r2, .L10+8
 205 000e 1160     		str	r1, [r2]
 232:Generated_Source\PSoC4/cyfitter_cfg.c **** 	CY_SET_XTND_REG32((void CYFAR *)CYREG_CTB0_CTBBUS_SW, 0x00900000u);
 206              		.loc 1 232 0
 207 0010 1849     		ldr	r1, .L10+12
 208 0012 194A     		ldr	r2, .L10+16
 209 0014 1160     		str	r1, [r2]
 233:Generated_Source\PSoC4/cyfitter_cfg.c **** 	CY_SET_XTND_REG32((void CYFAR *)CYREG_CTB1_CTB_CTRL, 0x80000000u);
 210              		.loc 1 233 0
 211 0016 9021     		movs	r1, #144
 212 0018 0904     		lsls	r1, r1, #16
 213 001a 184A     		ldr	r2, .L10+20
 214 001c 1160     		str	r1, [r2]
 234:Generated_Source\PSoC4/cyfitter_cfg.c **** 	CY_SET_XTND_REG32((void CYFAR *)CYREG_CTB1_OA1_SW, 0x00040260u);
 215              		.loc 1 234 0
 216 001e 184A     		ldr	r2, .L10+24
 217 0020 1360     		str	r3, [r2]
 235:Generated_Source\PSoC4/cyfitter_cfg.c **** 	CY_SET_XTND_REG32((void CYFAR *)CYREG_ART_CTRL, 0x80000000u);
 218              		.loc 1 235 0
 219 0022 1849     		ldr	r1, .L10+28
 220 0024 184A     		ldr	r2, .L10+32
 221 0026 1160     		str	r1, [r2]
 236:Generated_Source\PSoC4/cyfitter_cfg.c **** 	CY_SET_XTND_REG32((void CYFAR *)CYREG_ART_SARMUXVPLUS_SW, 0x01000002u);
 222              		.loc 1 236 0
 223 0028 184A     		ldr	r2, .L10+36
 224 002a 1360     		str	r3, [r2]
 237:Generated_Source\PSoC4/cyfitter_cfg.c **** 	CY_SET_XTND_REG32((void CYFAR *)CYREG_ART_SARMUXVMINUS_SW, 0x00000080u);
 225              		.loc 1 237 0
 226 002c 1849     		ldr	r1, .L10+40
ARM GAS  C:\Users\cdrow\AppData\Local\Temp\ccCscaoD.s 			page 10


 227 002e 194A     		ldr	r2, .L10+44
 228 0030 1160     		str	r1, [r2]
 238:Generated_Source\PSoC4/cyfitter_cfg.c **** 	CY_SET_XTND_REG32((void CYFAR *)CYREG_ART_SARMUXCOREIO1_SW, 0x02000020u);
 229              		.loc 1 238 0
 230 0032 8021     		movs	r1, #128
 231 0034 184A     		ldr	r2, .L10+48
 232 0036 1160     		str	r1, [r2]
 239:Generated_Source\PSoC4/cyfitter_cfg.c **** 	CY_SET_XTND_REG32((void CYFAR *)CYREG_ART_CTB0VREF_SW, 0x00000001u);
 233              		.loc 1 239 0
 234 0038 1849     		ldr	r1, .L10+52
 235 003a 194A     		ldr	r2, .L10+56
 236 003c 1160     		str	r1, [r2]
 240:Generated_Source\PSoC4/cyfitter_cfg.c **** 	CY_SET_XTND_REG32((void CYFAR *)CYREG_SAR_CTRL, 0x80000000u);
 237              		.loc 1 240 0
 238 003e 0121     		movs	r1, #1
 239 0040 184A     		ldr	r2, .L10+60
 240 0042 1160     		str	r1, [r2]
 241:Generated_Source\PSoC4/cyfitter_cfg.c **** 	CY_SET_XTND_REG32((void CYFAR *)CYREG_PASS_PASS_CTRL, 0x00000003u);
 241              		.loc 1 241 0
 242 0044 184A     		ldr	r2, .L10+64
 243 0046 1360     		str	r3, [r2]
 242:Generated_Source\PSoC4/cyfitter_cfg.c **** 	CY_SET_XTND_REG32((void CYFAR *)CYREG_PASS_PRB_CTRL, 0x80000001u);
 244              		.loc 1 242 0
 245 0048 0322     		movs	r2, #3
 246 004a 184B     		ldr	r3, .L10+68
 247 004c 1A60     		str	r2, [r3]
 243:Generated_Source\PSoC4/cyfitter_cfg.c **** 	CY_SET_XTND_REG32((void CYFAR *)CYREG_PASS_PRB_REF1, 0x000000F1u);
 248              		.loc 1 243 0
 249 004e 184A     		ldr	r2, .L10+72
 250 0050 184B     		ldr	r3, .L10+76
 251 0052 1A60     		str	r2, [r3]
 244:Generated_Source\PSoC4/cyfitter_cfg.c **** 	CY_SET_XTND_REG32((void CYFAR *)CYREG_PASS_DSAB_DSAB_CTRL, 0x00000020u);
 252              		.loc 1 244 0
 253 0054 F122     		movs	r2, #241
 254 0056 184B     		ldr	r3, .L10+80
 255 0058 1A60     		str	r2, [r3]
 245:Generated_Source\PSoC4/cyfitter_cfg.c **** 	SetAnalogRoutingPumps(1);
 256              		.loc 1 245 0
 257 005a D13A     		subs	r2, r2, #209
 258 005c 174B     		ldr	r3, .L10+84
 259 005e 1A60     		str	r2, [r3]
 246:Generated_Source\PSoC4/cyfitter_cfg.c **** }
 260              		.loc 1 246 0
 261 0060 0120     		movs	r0, #1
 262 0062 FFF7FEFF 		bl	SetAnalogRoutingPumps
 263              	.LVL9:
 247:Generated_Source\PSoC4/cyfitter_cfg.c **** 
 264              		.loc 1 247 0
 265              		@ sp needed
 266 0066 10BD     		pop	{r4, pc}
 267              	.L11:
 268              		.align	2
 269              	.L10:
 270 0068 00003040 		.word	1076887552
 271 006c 80000800 		.word	524416
 272 0070 80003040 		.word	1076887680
 273 0074 09000400 		.word	262153
ARM GAS  C:\Users\cdrow\AppData\Local\Temp\ccCscaoD.s 			page 11


 274 0078 88003040 		.word	1076887688
 275 007c 90003040 		.word	1076887696
 276 0080 00003140 		.word	1076953088
 277 0084 60020400 		.word	262752
 278 0088 88003140 		.word	1076953224
 279 008c 00003840 		.word	1077411840
 280 0090 02000001 		.word	16777218
 281 0094 10003840 		.word	1077411856
 282 0098 18003840 		.word	1077411864
 283 009c 20000002 		.word	33554464
 284 00a0 28003840 		.word	1077411880
 285 00a4 40013840 		.word	1077412160
 286 00a8 00003A40 		.word	1077542912
 287 00ac 08013F40 		.word	1077870856
 288 00b0 01000080 		.word	-2147483647
 289 00b4 00023F40 		.word	1077871104
 290 00b8 08023F40 		.word	1077871112
 291 00bc 000E3F40 		.word	1077874176
 292              		.cfi_endproc
 293              	.LFE5:
 294              		.size	AnalogSetDefault, .-AnalogSetDefault
 295              		.section	.text.AMux_1_CYAMUXSIDE_A_Set,"ax",%progbits
 296              		.align	2
 297              		.global	AMux_1_CYAMUXSIDE_A_Set
 298              		.code	16
 299              		.thumb_func
 300              		.type	AMux_1_CYAMUXSIDE_A_Set, %function
 301              	AMux_1_CYAMUXSIDE_A_Set:
 302              	.LFB7:
 279:Generated_Source\PSoC4/cyfitter_cfg.c **** 
 280:Generated_Source\PSoC4/cyfitter_cfg.c **** 
 281:Generated_Source\PSoC4/cyfitter_cfg.c **** #define CY_AMUX_UNUSED CYREG_CM0P_ROM_DWT
 282:Generated_Source\PSoC4/cyfitter_cfg.c **** /*******************************************************************************
 283:Generated_Source\PSoC4/cyfitter_cfg.c **** * Function Name: AMux_1_CYAMUXSIDE_A_Set
 284:Generated_Source\PSoC4/cyfitter_cfg.c **** ********************************************************************************
 285:Generated_Source\PSoC4/cyfitter_cfg.c **** * Summary:
 286:Generated_Source\PSoC4/cyfitter_cfg.c **** *  This function is used to set a particular channel as active on the AMux.
 287:Generated_Source\PSoC4/cyfitter_cfg.c **** *
 288:Generated_Source\PSoC4/cyfitter_cfg.c **** * Parameters:  
 289:Generated_Source\PSoC4/cyfitter_cfg.c **** *   channel - The mux channel input to set as active
 290:Generated_Source\PSoC4/cyfitter_cfg.c **** *
 291:Generated_Source\PSoC4/cyfitter_cfg.c **** * Return:
 292:Generated_Source\PSoC4/cyfitter_cfg.c **** *   void
 293:Generated_Source\PSoC4/cyfitter_cfg.c **** *
 294:Generated_Source\PSoC4/cyfitter_cfg.c **** *******************************************************************************/
 295:Generated_Source\PSoC4/cyfitter_cfg.c **** void AMux_1_CYAMUXSIDE_A_Set(uint8 channel)
 296:Generated_Source\PSoC4/cyfitter_cfg.c **** {
 303              		.loc 1 296 0
 304              		.cfi_startproc
 305              		@ args = 0, pretend = 0, frame = 0
 306              		@ frame_needed = 0, uses_anonymous_args = 0
 307              		@ link register save eliminated.
 308              	.LVL10:
 297:Generated_Source\PSoC4/cyfitter_cfg.c **** 	switch (channel) {
 309              		.loc 1 297 0
 310 0000 2028     		cmp	r0, #32
 311 0002 00D9     		bls	.LCB229
ARM GAS  C:\Users\cdrow\AppData\Local\Temp\ccCscaoD.s 			page 12


 312 0004 93E0     		b	.L12	@long jump
 313              	.LCB229:
 314 0006 8000     		lsls	r0, r0, #2
 315              	.LVL11:
 316 0008 494B     		ldr	r3, .L48
 317 000a 1B58     		ldr	r3, [r3, r0]
 318 000c 9F46     		mov	pc, r3
 319              		.section	.rodata
 320              		.align	2
 321              	.L15:
 322 0000 0E000000 		.word	.L14
 323 0004 16000000 		.word	.L16
 324 0008 22000000 		.word	.L17
 325 000c 2A000000 		.word	.L18
 326 0010 38000000 		.word	.L19
 327 0014 40000000 		.word	.L20
 328 0018 4E000000 		.word	.L21
 329 001c 56000000 		.word	.L22
 330 0020 64000000 		.word	.L23
 331 0024 6C000000 		.word	.L24
 332 0028 78000000 		.word	.L25
 333 002c 80000000 		.word	.L26
 334 0030 88000000 		.word	.L27
 335 0034 90000000 		.word	.L28
 336 0038 98000000 		.word	.L29
 337 003c A0000000 		.word	.L30
 338 0040 A8000000 		.word	.L31
 339 0044 B0000000 		.word	.L32
 340 0048 B8000000 		.word	.L33
 341 004c C0000000 		.word	.L34
 342 0050 C8000000 		.word	.L35
 343 0054 D0000000 		.word	.L36
 344 0058 D8000000 		.word	.L37
 345 005c E0000000 		.word	.L38
 346 0060 E8000000 		.word	.L39
 347 0064 F0000000 		.word	.L40
 348 0068 F8000000 		.word	.L41
 349 006c 00010000 		.word	.L42
 350 0070 08010000 		.word	.L43
 351 0074 10010000 		.word	.L44
 352 0078 18010000 		.word	.L45
 353 007c 20010000 		.word	.L46
 354 0080 28010000 		.word	.L47
 355              		.section	.text.AMux_1_CYAMUXSIDE_A_Set
 356              	.L14:
 298:Generated_Source\PSoC4/cyfitter_cfg.c **** 		case 0u:
 299:Generated_Source\PSoC4/cyfitter_cfg.c **** 			CY_SET_REG32((void CYXDATA *)CYREG_CTB0_CTBBUS_SW, (0x04u));
 357              		.loc 1 299 0
 358 000e 0422     		movs	r2, #4
 359 0010 484B     		ldr	r3, .L48+4
 360 0012 1A60     		str	r2, [r3]
 300:Generated_Source\PSoC4/cyfitter_cfg.c **** 			break;
 361              		.loc 1 300 0
 362 0014 8BE0     		b	.L12
 363              	.L16:
 301:Generated_Source\PSoC4/cyfitter_cfg.c **** 		case 1u:
 302:Generated_Source\PSoC4/cyfitter_cfg.c **** 			CY_SET_REG32((void CYXDATA *)CYREG_HSIOM_PORT_SEL3, (CY_GET_REG32((void CYXDATA *)CYREG_HSIOM_PO
ARM GAS  C:\Users\cdrow\AppData\Local\Temp\ccCscaoD.s 			page 13


 364              		.loc 1 302 0
 365 0016 484A     		ldr	r2, .L48+8
 366 0018 1168     		ldr	r1, [r2]
 367 001a 7023     		movs	r3, #112
 368 001c 0B43     		orrs	r3, r1
 369 001e 1360     		str	r3, [r2]
 303:Generated_Source\PSoC4/cyfitter_cfg.c **** 			break;
 370              		.loc 1 303 0
 371 0020 85E0     		b	.L12
 372              	.L17:
 304:Generated_Source\PSoC4/cyfitter_cfg.c **** 		case 2u:
 305:Generated_Source\PSoC4/cyfitter_cfg.c **** 			CY_SET_REG32((void CYXDATA *)CYREG_CTB0_CTBBUS_SW, (0x04u));
 373              		.loc 1 305 0
 374 0022 0422     		movs	r2, #4
 375 0024 434B     		ldr	r3, .L48+4
 376 0026 1A60     		str	r2, [r3]
 306:Generated_Source\PSoC4/cyfitter_cfg.c **** 			break;
 377              		.loc 1 306 0
 378 0028 81E0     		b	.L12
 379              	.L18:
 307:Generated_Source\PSoC4/cyfitter_cfg.c **** 		case 3u:
 308:Generated_Source\PSoC4/cyfitter_cfg.c **** 			CY_SET_REG32((void CYXDATA *)CYREG_HSIOM_PORT_SEL3, (CY_GET_REG32((void CYXDATA *)CYREG_HSIOM_PO
 380              		.loc 1 308 0
 381 002a 434A     		ldr	r2, .L48+8
 382 002c 1368     		ldr	r3, [r2]
 383 002e E021     		movs	r1, #224
 384 0030 C900     		lsls	r1, r1, #3
 385 0032 0B43     		orrs	r3, r1
 386 0034 1360     		str	r3, [r2]
 309:Generated_Source\PSoC4/cyfitter_cfg.c **** 			break;
 387              		.loc 1 309 0
 388 0036 7AE0     		b	.L12
 389              	.L19:
 310:Generated_Source\PSoC4/cyfitter_cfg.c **** 		case 4u:
 311:Generated_Source\PSoC4/cyfitter_cfg.c **** 			CY_SET_REG32((void CYXDATA *)CYREG_CTB0_CTBBUS_SW, (0x04u));
 390              		.loc 1 311 0
 391 0038 0422     		movs	r2, #4
 392 003a 3E4B     		ldr	r3, .L48+4
 393 003c 1A60     		str	r2, [r3]
 312:Generated_Source\PSoC4/cyfitter_cfg.c **** 			break;
 394              		.loc 1 312 0
 395 003e 76E0     		b	.L12
 396              	.L20:
 313:Generated_Source\PSoC4/cyfitter_cfg.c **** 		case 5u:
 314:Generated_Source\PSoC4/cyfitter_cfg.c **** 			CY_SET_REG32((void CYXDATA *)CYREG_HSIOM_PORT_SEL3, (CY_GET_REG32((void CYXDATA *)CYREG_HSIOM_PO
 397              		.loc 1 314 0
 398 0040 3D4A     		ldr	r2, .L48+8
 399 0042 1368     		ldr	r3, [r2]
 400 0044 E021     		movs	r1, #224
 401 0046 C901     		lsls	r1, r1, #7
 402 0048 0B43     		orrs	r3, r1
 403 004a 1360     		str	r3, [r2]
 315:Generated_Source\PSoC4/cyfitter_cfg.c **** 			break;
 404              		.loc 1 315 0
 405 004c 6FE0     		b	.L12
 406              	.L21:
 316:Generated_Source\PSoC4/cyfitter_cfg.c **** 		case 6u:
ARM GAS  C:\Users\cdrow\AppData\Local\Temp\ccCscaoD.s 			page 14


 317:Generated_Source\PSoC4/cyfitter_cfg.c **** 			CY_SET_REG32((void CYXDATA *)CYREG_CTB0_CTBBUS_SW, (0x04u));
 407              		.loc 1 317 0
 408 004e 0422     		movs	r2, #4
 409 0050 384B     		ldr	r3, .L48+4
 410 0052 1A60     		str	r2, [r3]
 318:Generated_Source\PSoC4/cyfitter_cfg.c **** 			break;
 411              		.loc 1 318 0
 412 0054 6BE0     		b	.L12
 413              	.L22:
 319:Generated_Source\PSoC4/cyfitter_cfg.c **** 		case 7u:
 320:Generated_Source\PSoC4/cyfitter_cfg.c **** 			CY_SET_REG32((void CYXDATA *)CYREG_HSIOM_PORT_SEL3, (CY_GET_REG32((void CYXDATA *)CYREG_HSIOM_PO
 414              		.loc 1 320 0
 415 0056 384A     		ldr	r2, .L48+8
 416 0058 1368     		ldr	r3, [r2]
 417 005a E021     		movs	r1, #224
 418 005c C902     		lsls	r1, r1, #11
 419 005e 0B43     		orrs	r3, r1
 420 0060 1360     		str	r3, [r2]
 321:Generated_Source\PSoC4/cyfitter_cfg.c **** 			break;
 421              		.loc 1 321 0
 422 0062 64E0     		b	.L12
 423              	.L23:
 322:Generated_Source\PSoC4/cyfitter_cfg.c **** 		case 8u:
 323:Generated_Source\PSoC4/cyfitter_cfg.c **** 			CY_SET_REG32((void CYXDATA *)CYREG_CTB0_CTBBUS_SW, (0x04u));
 424              		.loc 1 323 0
 425 0064 0422     		movs	r2, #4
 426 0066 334B     		ldr	r3, .L48+4
 427 0068 1A60     		str	r2, [r3]
 324:Generated_Source\PSoC4/cyfitter_cfg.c **** 			break;
 428              		.loc 1 324 0
 429 006a 60E0     		b	.L12
 430              	.L24:
 325:Generated_Source\PSoC4/cyfitter_cfg.c **** 		case 9u:
 326:Generated_Source\PSoC4/cyfitter_cfg.c **** 			CY_SET_REG32((void CYXDATA *)CYREG_HSIOM_PORT_SEL3, (CY_GET_REG32((void CYXDATA *)CYREG_HSIOM_PO
 431              		.loc 1 326 0
 432 006c 324A     		ldr	r2, .L48+8
 433 006e 1168     		ldr	r1, [r2]
 434 0070 0723     		movs	r3, #7
 435 0072 0B43     		orrs	r3, r1
 436 0074 1360     		str	r3, [r2]
 327:Generated_Source\PSoC4/cyfitter_cfg.c **** 			break;
 437              		.loc 1 327 0
 438 0076 5AE0     		b	.L12
 439              	.L25:
 328:Generated_Source\PSoC4/cyfitter_cfg.c **** 		case 10u:
 329:Generated_Source\PSoC4/cyfitter_cfg.c **** 			CY_SET_REG32((void CYXDATA *)CYREG_CTB0_CTBBUS_SW, (0x04u));
 440              		.loc 1 329 0
 441 0078 0422     		movs	r2, #4
 442 007a 2E4B     		ldr	r3, .L48+4
 443 007c 1A60     		str	r2, [r3]
 330:Generated_Source\PSoC4/cyfitter_cfg.c **** 			break;
 444              		.loc 1 330 0
 445 007e 56E0     		b	.L12
 446              	.L26:
 331:Generated_Source\PSoC4/cyfitter_cfg.c **** 		case 11u:
 332:Generated_Source\PSoC4/cyfitter_cfg.c **** 			CY_SET_REG32((void CYXDATA *)CYREG_CTB1_CTBBUS_SW, (0x80u));
 447              		.loc 1 332 0
ARM GAS  C:\Users\cdrow\AppData\Local\Temp\ccCscaoD.s 			page 15


 448 0080 8022     		movs	r2, #128
 449 0082 2E4B     		ldr	r3, .L48+12
 450 0084 1A60     		str	r2, [r3]
 333:Generated_Source\PSoC4/cyfitter_cfg.c **** 			break;
 451              		.loc 1 333 0
 452 0086 52E0     		b	.L12
 453              	.L27:
 334:Generated_Source\PSoC4/cyfitter_cfg.c **** 		case 12u:
 335:Generated_Source\PSoC4/cyfitter_cfg.c **** 			CY_SET_REG32((void CYXDATA *)CYREG_CTB0_CTBBUS_SW, (0x04u));
 454              		.loc 1 335 0
 455 0088 0422     		movs	r2, #4
 456 008a 2A4B     		ldr	r3, .L48+4
 457 008c 1A60     		str	r2, [r3]
 336:Generated_Source\PSoC4/cyfitter_cfg.c **** 			break;
 458              		.loc 1 336 0
 459 008e 4EE0     		b	.L12
 460              	.L28:
 337:Generated_Source\PSoC4/cyfitter_cfg.c **** 		case 13u:
 338:Generated_Source\PSoC4/cyfitter_cfg.c **** 			CY_SET_REG32((void CYXDATA *)CYREG_CTB1_CTBBUS_SW, (0x40u));
 461              		.loc 1 338 0
 462 0090 4022     		movs	r2, #64
 463 0092 2A4B     		ldr	r3, .L48+12
 464 0094 1A60     		str	r2, [r3]
 339:Generated_Source\PSoC4/cyfitter_cfg.c **** 			break;
 465              		.loc 1 339 0
 466 0096 4AE0     		b	.L12
 467              	.L29:
 340:Generated_Source\PSoC4/cyfitter_cfg.c **** 		case 14u:
 341:Generated_Source\PSoC4/cyfitter_cfg.c **** 			CY_SET_REG32((void CYXDATA *)CYREG_CTB0_CTBBUS_SW, (0x04u));
 468              		.loc 1 341 0
 469 0098 0422     		movs	r2, #4
 470 009a 264B     		ldr	r3, .L48+4
 471 009c 1A60     		str	r2, [r3]
 342:Generated_Source\PSoC4/cyfitter_cfg.c **** 			break;
 472              		.loc 1 342 0
 473 009e 46E0     		b	.L12
 474              	.L30:
 343:Generated_Source\PSoC4/cyfitter_cfg.c **** 		case 15u:
 344:Generated_Source\PSoC4/cyfitter_cfg.c **** 			CY_SET_REG32((void CYXDATA *)CYREG_CTB1_CTBBUS_SW, (0x20u));
 475              		.loc 1 344 0
 476 00a0 2022     		movs	r2, #32
 477 00a2 264B     		ldr	r3, .L48+12
 478 00a4 1A60     		str	r2, [r3]
 345:Generated_Source\PSoC4/cyfitter_cfg.c **** 			break;
 479              		.loc 1 345 0
 480 00a6 42E0     		b	.L12
 481              	.L31:
 346:Generated_Source\PSoC4/cyfitter_cfg.c **** 		case 16u:
 347:Generated_Source\PSoC4/cyfitter_cfg.c **** 			CY_SET_REG32((void CYXDATA *)CYREG_CTB0_CTBBUS_SW, (0x04u));
 482              		.loc 1 347 0
 483 00a8 0422     		movs	r2, #4
 484 00aa 224B     		ldr	r3, .L48+4
 485 00ac 1A60     		str	r2, [r3]
 348:Generated_Source\PSoC4/cyfitter_cfg.c **** 			break;
 486              		.loc 1 348 0
 487 00ae 3EE0     		b	.L12
 488              	.L32:
ARM GAS  C:\Users\cdrow\AppData\Local\Temp\ccCscaoD.s 			page 16


 349:Generated_Source\PSoC4/cyfitter_cfg.c **** 		case 17u:
 350:Generated_Source\PSoC4/cyfitter_cfg.c **** 			CY_SET_REG32((void CYXDATA *)CYREG_CTB1_CTBBUS_SW, (0x10u));
 489              		.loc 1 350 0
 490 00b0 1022     		movs	r2, #16
 491 00b2 224B     		ldr	r3, .L48+12
 492 00b4 1A60     		str	r2, [r3]
 351:Generated_Source\PSoC4/cyfitter_cfg.c **** 			break;
 493              		.loc 1 351 0
 494 00b6 3AE0     		b	.L12
 495              	.L33:
 352:Generated_Source\PSoC4/cyfitter_cfg.c **** 		case 18u:
 353:Generated_Source\PSoC4/cyfitter_cfg.c **** 			CY_SET_REG32((void CYXDATA *)CYREG_CTB0_CTBBUS_SW, (0x04u));
 496              		.loc 1 353 0
 497 00b8 0422     		movs	r2, #4
 498 00ba 1E4B     		ldr	r3, .L48+4
 499 00bc 1A60     		str	r2, [r3]
 354:Generated_Source\PSoC4/cyfitter_cfg.c **** 			break;
 500              		.loc 1 354 0
 501 00be 36E0     		b	.L12
 502              	.L34:
 355:Generated_Source\PSoC4/cyfitter_cfg.c **** 		case 19u:
 356:Generated_Source\PSoC4/cyfitter_cfg.c **** 			CY_SET_REG32((void CYXDATA *)CYREG_CTB1_CTBBUS_SW, (0x08u));
 503              		.loc 1 356 0
 504 00c0 0822     		movs	r2, #8
 505 00c2 1E4B     		ldr	r3, .L48+12
 506 00c4 1A60     		str	r2, [r3]
 357:Generated_Source\PSoC4/cyfitter_cfg.c **** 			break;
 507              		.loc 1 357 0
 508 00c6 32E0     		b	.L12
 509              	.L35:
 358:Generated_Source\PSoC4/cyfitter_cfg.c **** 		case 20u:
 359:Generated_Source\PSoC4/cyfitter_cfg.c **** 			CY_SET_REG32((void CYXDATA *)CYREG_CTB0_CTBBUS_SW, (0x04u));
 510              		.loc 1 359 0
 511 00c8 0422     		movs	r2, #4
 512 00ca 1A4B     		ldr	r3, .L48+4
 513 00cc 1A60     		str	r2, [r3]
 360:Generated_Source\PSoC4/cyfitter_cfg.c **** 			break;
 514              		.loc 1 360 0
 515 00ce 2EE0     		b	.L12
 516              	.L36:
 361:Generated_Source\PSoC4/cyfitter_cfg.c **** 		case 21u:
 362:Generated_Source\PSoC4/cyfitter_cfg.c **** 			CY_SET_REG32((void CYXDATA *)CYREG_CTB1_CTBBUS_SW, (0x04u));
 517              		.loc 1 362 0
 518 00d0 0422     		movs	r2, #4
 519 00d2 1A4B     		ldr	r3, .L48+12
 520 00d4 1A60     		str	r2, [r3]
 363:Generated_Source\PSoC4/cyfitter_cfg.c **** 			break;
 521              		.loc 1 363 0
 522 00d6 2AE0     		b	.L12
 523              	.L37:
 364:Generated_Source\PSoC4/cyfitter_cfg.c **** 		case 22u:
 365:Generated_Source\PSoC4/cyfitter_cfg.c **** 			CY_SET_REG32((void CYXDATA *)CYREG_CTB0_CTBBUS_SW, (0x04u));
 524              		.loc 1 365 0
 525 00d8 0422     		movs	r2, #4
 526 00da 164B     		ldr	r3, .L48+4
 527 00dc 1A60     		str	r2, [r3]
 366:Generated_Source\PSoC4/cyfitter_cfg.c **** 			break;
ARM GAS  C:\Users\cdrow\AppData\Local\Temp\ccCscaoD.s 			page 17


 528              		.loc 1 366 0
 529 00de 26E0     		b	.L12
 530              	.L38:
 367:Generated_Source\PSoC4/cyfitter_cfg.c **** 		case 23u:
 368:Generated_Source\PSoC4/cyfitter_cfg.c **** 			CY_SET_REG32((void CYXDATA *)CYREG_CTB1_CTBBUS_SW, (0x02u));
 531              		.loc 1 368 0
 532 00e0 0222     		movs	r2, #2
 533 00e2 164B     		ldr	r3, .L48+12
 534 00e4 1A60     		str	r2, [r3]
 369:Generated_Source\PSoC4/cyfitter_cfg.c **** 			break;
 535              		.loc 1 369 0
 536 00e6 22E0     		b	.L12
 537              	.L39:
 370:Generated_Source\PSoC4/cyfitter_cfg.c **** 		case 24u:
 371:Generated_Source\PSoC4/cyfitter_cfg.c **** 			CY_SET_REG32((void CYXDATA *)CYREG_CTB0_CTBBUS_SW, (0x04u));
 538              		.loc 1 371 0
 539 00e8 0422     		movs	r2, #4
 540 00ea 124B     		ldr	r3, .L48+4
 541 00ec 1A60     		str	r2, [r3]
 372:Generated_Source\PSoC4/cyfitter_cfg.c **** 			break;
 542              		.loc 1 372 0
 543 00ee 1EE0     		b	.L12
 544              	.L40:
 373:Generated_Source\PSoC4/cyfitter_cfg.c **** 		case 25u:
 374:Generated_Source\PSoC4/cyfitter_cfg.c **** 			CY_SET_REG32((void CYXDATA *)CYREG_CTB1_CTBBUS_SW, (0x01u));
 545              		.loc 1 374 0
 546 00f0 0122     		movs	r2, #1
 547 00f2 124B     		ldr	r3, .L48+12
 548 00f4 1A60     		str	r2, [r3]
 375:Generated_Source\PSoC4/cyfitter_cfg.c **** 			break;
 549              		.loc 1 375 0
 550 00f6 1AE0     		b	.L12
 551              	.L41:
 376:Generated_Source\PSoC4/cyfitter_cfg.c **** 		case 26u:
 377:Generated_Source\PSoC4/cyfitter_cfg.c **** 			CY_SET_REG32((void CYXDATA *)CYREG_CTB0_CTBBUS_SW, (0x04u));
 552              		.loc 1 377 0
 553 00f8 0422     		movs	r2, #4
 554 00fa 0E4B     		ldr	r3, .L48+4
 555 00fc 1A60     		str	r2, [r3]
 378:Generated_Source\PSoC4/cyfitter_cfg.c **** 			break;
 556              		.loc 1 378 0
 557 00fe 16E0     		b	.L12
 558              	.L42:
 379:Generated_Source\PSoC4/cyfitter_cfg.c **** 		case 27u:
 380:Generated_Source\PSoC4/cyfitter_cfg.c **** 			CY_SET_REG32((void CYXDATA *)CYREG_CTB0_OA1_SW, (0x04u));
 559              		.loc 1 380 0
 560 0100 0422     		movs	r2, #4
 561 0102 0F4B     		ldr	r3, .L48+16
 562 0104 1A60     		str	r2, [r3]
 381:Generated_Source\PSoC4/cyfitter_cfg.c **** 			break;
 563              		.loc 1 381 0
 564 0106 12E0     		b	.L12
 565              	.L43:
 382:Generated_Source\PSoC4/cyfitter_cfg.c **** 		case 28u:
 383:Generated_Source\PSoC4/cyfitter_cfg.c **** 			CY_SET_REG32((void CYXDATA *)CYREG_CTB0_CTBBUS_SW, (0x04u));
 566              		.loc 1 383 0
 567 0108 0422     		movs	r2, #4
ARM GAS  C:\Users\cdrow\AppData\Local\Temp\ccCscaoD.s 			page 18


 568 010a 0A4B     		ldr	r3, .L48+4
 569 010c 1A60     		str	r2, [r3]
 384:Generated_Source\PSoC4/cyfitter_cfg.c **** 			break;
 570              		.loc 1 384 0
 571 010e 0EE0     		b	.L12
 572              	.L44:
 385:Generated_Source\PSoC4/cyfitter_cfg.c **** 		case 29u:
 386:Generated_Source\PSoC4/cyfitter_cfg.c **** 			CY_SET_REG32((void CYXDATA *)CYREG_CTB0_CTBBUS_SW, (0x08u));
 573              		.loc 1 386 0
 574 0110 0822     		movs	r2, #8
 575 0112 084B     		ldr	r3, .L48+4
 576 0114 1A60     		str	r2, [r3]
 387:Generated_Source\PSoC4/cyfitter_cfg.c **** 			break;
 577              		.loc 1 387 0
 578 0116 0AE0     		b	.L12
 579              	.L45:
 388:Generated_Source\PSoC4/cyfitter_cfg.c **** 		case 30u:
 389:Generated_Source\PSoC4/cyfitter_cfg.c **** 			CY_SET_REG32((void CYXDATA *)CYREG_CTB0_CTBBUS_SW, (0x04u));
 580              		.loc 1 389 0
 581 0118 0422     		movs	r2, #4
 582 011a 064B     		ldr	r3, .L48+4
 583 011c 1A60     		str	r2, [r3]
 390:Generated_Source\PSoC4/cyfitter_cfg.c **** 			break;
 584              		.loc 1 390 0
 585 011e 06E0     		b	.L12
 586              	.L46:
 391:Generated_Source\PSoC4/cyfitter_cfg.c **** 		case 31u:
 392:Generated_Source\PSoC4/cyfitter_cfg.c **** 			CY_SET_REG32((void CYXDATA *)CYREG_CTB0_CTBBUS_SW, (0x02u));
 587              		.loc 1 392 0
 588 0120 0222     		movs	r2, #2
 589 0122 044B     		ldr	r3, .L48+4
 590 0124 1A60     		str	r2, [r3]
 393:Generated_Source\PSoC4/cyfitter_cfg.c **** 			break;
 591              		.loc 1 393 0
 592 0126 02E0     		b	.L12
 593              	.L47:
 394:Generated_Source\PSoC4/cyfitter_cfg.c **** 		case 32u:
 395:Generated_Source\PSoC4/cyfitter_cfg.c **** 			CY_SET_REG32((void CYXDATA *)CYREG_CTB0_CTBBUS_SW, (0x02u));
 594              		.loc 1 395 0
 595 0128 0222     		movs	r2, #2
 596 012a 024B     		ldr	r3, .L48+4
 597 012c 1A60     		str	r2, [r3]
 598              	.L12:
 396:Generated_Source\PSoC4/cyfitter_cfg.c **** 			break;
 397:Generated_Source\PSoC4/cyfitter_cfg.c **** 		default:
 398:Generated_Source\PSoC4/cyfitter_cfg.c **** 			break;
 399:Generated_Source\PSoC4/cyfitter_cfg.c **** 	}
 400:Generated_Source\PSoC4/cyfitter_cfg.c **** }
 599              		.loc 1 400 0
 600              		@ sp needed
 601 012e 7047     		bx	lr
 602              	.L49:
 603              		.align	2
 604              	.L48:
 605 0130 00000000 		.word	.L15
 606 0134 90003040 		.word	1076887696
 607 0138 00030240 		.word	1073873664
ARM GAS  C:\Users\cdrow\AppData\Local\Temp\ccCscaoD.s 			page 19


 608 013c 90003140 		.word	1076953232
 609 0140 88003040 		.word	1076887688
 610              		.cfi_endproc
 611              	.LFE7:
 612              		.size	AMux_1_CYAMUXSIDE_A_Set, .-AMux_1_CYAMUXSIDE_A_Set
 613              		.section	.text.AMux_1_CYAMUXSIDE_A_Unset,"ax",%progbits
 614              		.align	2
 615              		.global	AMux_1_CYAMUXSIDE_A_Unset
 616              		.code	16
 617              		.thumb_func
 618              		.type	AMux_1_CYAMUXSIDE_A_Unset, %function
 619              	AMux_1_CYAMUXSIDE_A_Unset:
 620              	.LFB8:
 401:Generated_Source\PSoC4/cyfitter_cfg.c **** 
 402:Generated_Source\PSoC4/cyfitter_cfg.c **** /*******************************************************************************
 403:Generated_Source\PSoC4/cyfitter_cfg.c **** * Function Name: AMux_1_CYAMUXSIDE_A_Unset
 404:Generated_Source\PSoC4/cyfitter_cfg.c **** ********************************************************************************
 405:Generated_Source\PSoC4/cyfitter_cfg.c **** * Summary:
 406:Generated_Source\PSoC4/cyfitter_cfg.c **** *  This function is used to clear a particular channel from being active on the
 407:Generated_Source\PSoC4/cyfitter_cfg.c **** *  AMux.
 408:Generated_Source\PSoC4/cyfitter_cfg.c **** *
 409:Generated_Source\PSoC4/cyfitter_cfg.c **** * Parameters:  
 410:Generated_Source\PSoC4/cyfitter_cfg.c **** *   channel - The mux channel input to mark inactive
 411:Generated_Source\PSoC4/cyfitter_cfg.c **** *
 412:Generated_Source\PSoC4/cyfitter_cfg.c **** * Return:
 413:Generated_Source\PSoC4/cyfitter_cfg.c **** *   void
 414:Generated_Source\PSoC4/cyfitter_cfg.c **** *
 415:Generated_Source\PSoC4/cyfitter_cfg.c **** *******************************************************************************/
 416:Generated_Source\PSoC4/cyfitter_cfg.c **** void AMux_1_CYAMUXSIDE_A_Unset(uint8 channel)
 417:Generated_Source\PSoC4/cyfitter_cfg.c **** {
 621              		.loc 1 417 0
 622              		.cfi_startproc
 623              		@ args = 0, pretend = 0, frame = 0
 624              		@ frame_needed = 0, uses_anonymous_args = 0
 625              		@ link register save eliminated.
 626              	.LVL12:
 418:Generated_Source\PSoC4/cyfitter_cfg.c **** 	switch (channel) {
 627              		.loc 1 418 0
 628 0000 2028     		cmp	r0, #32
 629 0002 00D9     		bls	.LCB506
 630 0004 90E0     		b	.L50	@long jump
 631              	.LCB506:
 632 0006 8000     		lsls	r0, r0, #2
 633              	.LVL13:
 634 0008 484B     		ldr	r3, .L86
 635 000a 1B58     		ldr	r3, [r3, r0]
 636 000c 9F46     		mov	pc, r3
 637              		.section	.rodata
 638              		.align	2
 639              	.L53:
 640 0084 0E000000 		.word	.L52
 641 0088 16000000 		.word	.L54
 642 008c 22000000 		.word	.L55
 643 0090 2A000000 		.word	.L56
 644 0094 36000000 		.word	.L57
 645 0098 3E000000 		.word	.L58
 646 009c 4A000000 		.word	.L59
ARM GAS  C:\Users\cdrow\AppData\Local\Temp\ccCscaoD.s 			page 20


 647 00a0 52000000 		.word	.L60
 648 00a4 5E000000 		.word	.L61
 649 00a8 66000000 		.word	.L62
 650 00ac 72000000 		.word	.L63
 651 00b0 7A000000 		.word	.L64
 652 00b4 82000000 		.word	.L65
 653 00b8 8A000000 		.word	.L66
 654 00bc 92000000 		.word	.L67
 655 00c0 9A000000 		.word	.L68
 656 00c4 A2000000 		.word	.L69
 657 00c8 AA000000 		.word	.L70
 658 00cc B2000000 		.word	.L71
 659 00d0 BA000000 		.word	.L72
 660 00d4 C2000000 		.word	.L73
 661 00d8 CA000000 		.word	.L74
 662 00dc D2000000 		.word	.L75
 663 00e0 DA000000 		.word	.L76
 664 00e4 E2000000 		.word	.L77
 665 00e8 EA000000 		.word	.L78
 666 00ec F2000000 		.word	.L79
 667 00f0 FA000000 		.word	.L80
 668 00f4 02010000 		.word	.L81
 669 00f8 0A010000 		.word	.L82
 670 00fc 12010000 		.word	.L83
 671 0100 1A010000 		.word	.L84
 672 0104 22010000 		.word	.L85
 673              		.section	.text.AMux_1_CYAMUXSIDE_A_Unset
 674              	.L52:
 419:Generated_Source\PSoC4/cyfitter_cfg.c **** 		case 0u:
 420:Generated_Source\PSoC4/cyfitter_cfg.c **** 			CY_SET_REG32((void CYXDATA *)CYREG_CTB0_CTBBUS_SW_CLEAR, (0x04u));
 675              		.loc 1 420 0
 676 000e 0422     		movs	r2, #4
 677 0010 474B     		ldr	r3, .L86+4
 678 0012 1A60     		str	r2, [r3]
 421:Generated_Source\PSoC4/cyfitter_cfg.c **** 			break;
 679              		.loc 1 421 0
 680 0014 88E0     		b	.L50
 681              	.L54:
 422:Generated_Source\PSoC4/cyfitter_cfg.c **** 		case 1u:
 423:Generated_Source\PSoC4/cyfitter_cfg.c **** 			CY_SET_REG32((void CYXDATA *)CYREG_HSIOM_PORT_SEL3, (CY_GET_REG32((void CYXDATA *)CYREG_HSIOM_PO
 682              		.loc 1 423 0
 683 0016 474A     		ldr	r2, .L86+8
 684 0018 1368     		ldr	r3, [r2]
 685 001a 7021     		movs	r1, #112
 686 001c 8B43     		bics	r3, r1
 687 001e 1360     		str	r3, [r2]
 424:Generated_Source\PSoC4/cyfitter_cfg.c **** 			break;
 688              		.loc 1 424 0
 689 0020 82E0     		b	.L50
 690              	.L55:
 425:Generated_Source\PSoC4/cyfitter_cfg.c **** 		case 2u:
 426:Generated_Source\PSoC4/cyfitter_cfg.c **** 			CY_SET_REG32((void CYXDATA *)CYREG_CTB0_CTBBUS_SW_CLEAR, (0x04u));
 691              		.loc 1 426 0
 692 0022 0422     		movs	r2, #4
 693 0024 424B     		ldr	r3, .L86+4
 694 0026 1A60     		str	r2, [r3]
 427:Generated_Source\PSoC4/cyfitter_cfg.c **** 			break;
ARM GAS  C:\Users\cdrow\AppData\Local\Temp\ccCscaoD.s 			page 21


 695              		.loc 1 427 0
 696 0028 7EE0     		b	.L50
 697              	.L56:
 428:Generated_Source\PSoC4/cyfitter_cfg.c **** 		case 3u:
 429:Generated_Source\PSoC4/cyfitter_cfg.c **** 			CY_SET_REG32((void CYXDATA *)CYREG_HSIOM_PORT_SEL3, (CY_GET_REG32((void CYXDATA *)CYREG_HSIOM_PO
 698              		.loc 1 429 0
 699 002a 424A     		ldr	r2, .L86+8
 700 002c 1168     		ldr	r1, [r2]
 701 002e 424B     		ldr	r3, .L86+12
 702 0030 0B40     		ands	r3, r1
 703 0032 1360     		str	r3, [r2]
 430:Generated_Source\PSoC4/cyfitter_cfg.c **** 			break;
 704              		.loc 1 430 0
 705 0034 78E0     		b	.L50
 706              	.L57:
 431:Generated_Source\PSoC4/cyfitter_cfg.c **** 		case 4u:
 432:Generated_Source\PSoC4/cyfitter_cfg.c **** 			CY_SET_REG32((void CYXDATA *)CYREG_CTB0_CTBBUS_SW_CLEAR, (0x04u));
 707              		.loc 1 432 0
 708 0036 0422     		movs	r2, #4
 709 0038 3D4B     		ldr	r3, .L86+4
 710 003a 1A60     		str	r2, [r3]
 433:Generated_Source\PSoC4/cyfitter_cfg.c **** 			break;
 711              		.loc 1 433 0
 712 003c 74E0     		b	.L50
 713              	.L58:
 434:Generated_Source\PSoC4/cyfitter_cfg.c **** 		case 5u:
 435:Generated_Source\PSoC4/cyfitter_cfg.c **** 			CY_SET_REG32((void CYXDATA *)CYREG_HSIOM_PORT_SEL3, (CY_GET_REG32((void CYXDATA *)CYREG_HSIOM_PO
 714              		.loc 1 435 0
 715 003e 3D4A     		ldr	r2, .L86+8
 716 0040 1168     		ldr	r1, [r2]
 717 0042 3E4B     		ldr	r3, .L86+16
 718 0044 0B40     		ands	r3, r1
 719 0046 1360     		str	r3, [r2]
 436:Generated_Source\PSoC4/cyfitter_cfg.c **** 			break;
 720              		.loc 1 436 0
 721 0048 6EE0     		b	.L50
 722              	.L59:
 437:Generated_Source\PSoC4/cyfitter_cfg.c **** 		case 6u:
 438:Generated_Source\PSoC4/cyfitter_cfg.c **** 			CY_SET_REG32((void CYXDATA *)CYREG_CTB0_CTBBUS_SW_CLEAR, (0x04u));
 723              		.loc 1 438 0
 724 004a 0422     		movs	r2, #4
 725 004c 384B     		ldr	r3, .L86+4
 726 004e 1A60     		str	r2, [r3]
 439:Generated_Source\PSoC4/cyfitter_cfg.c **** 			break;
 727              		.loc 1 439 0
 728 0050 6AE0     		b	.L50
 729              	.L60:
 440:Generated_Source\PSoC4/cyfitter_cfg.c **** 		case 7u:
 441:Generated_Source\PSoC4/cyfitter_cfg.c **** 			CY_SET_REG32((void CYXDATA *)CYREG_HSIOM_PORT_SEL3, (CY_GET_REG32((void CYXDATA *)CYREG_HSIOM_PO
 730              		.loc 1 441 0
 731 0052 384A     		ldr	r2, .L86+8
 732 0054 1168     		ldr	r1, [r2]
 733 0056 3A4B     		ldr	r3, .L86+20
 734 0058 0B40     		ands	r3, r1
 735 005a 1360     		str	r3, [r2]
 442:Generated_Source\PSoC4/cyfitter_cfg.c **** 			break;
 736              		.loc 1 442 0
ARM GAS  C:\Users\cdrow\AppData\Local\Temp\ccCscaoD.s 			page 22


 737 005c 64E0     		b	.L50
 738              	.L61:
 443:Generated_Source\PSoC4/cyfitter_cfg.c **** 		case 8u:
 444:Generated_Source\PSoC4/cyfitter_cfg.c **** 			CY_SET_REG32((void CYXDATA *)CYREG_CTB0_CTBBUS_SW_CLEAR, (0x04u));
 739              		.loc 1 444 0
 740 005e 0422     		movs	r2, #4
 741 0060 334B     		ldr	r3, .L86+4
 742 0062 1A60     		str	r2, [r3]
 445:Generated_Source\PSoC4/cyfitter_cfg.c **** 			break;
 743              		.loc 1 445 0
 744 0064 60E0     		b	.L50
 745              	.L62:
 446:Generated_Source\PSoC4/cyfitter_cfg.c **** 		case 9u:
 447:Generated_Source\PSoC4/cyfitter_cfg.c **** 			CY_SET_REG32((void CYXDATA *)CYREG_HSIOM_PORT_SEL3, (CY_GET_REG32((void CYXDATA *)CYREG_HSIOM_PO
 746              		.loc 1 447 0
 747 0066 334A     		ldr	r2, .L86+8
 748 0068 1368     		ldr	r3, [r2]
 749 006a 0721     		movs	r1, #7
 750 006c 8B43     		bics	r3, r1
 751 006e 1360     		str	r3, [r2]
 448:Generated_Source\PSoC4/cyfitter_cfg.c **** 			break;
 752              		.loc 1 448 0
 753 0070 5AE0     		b	.L50
 754              	.L63:
 449:Generated_Source\PSoC4/cyfitter_cfg.c **** 		case 10u:
 450:Generated_Source\PSoC4/cyfitter_cfg.c **** 			CY_SET_REG32((void CYXDATA *)CYREG_CTB0_CTBBUS_SW_CLEAR, (0x04u));
 755              		.loc 1 450 0
 756 0072 0422     		movs	r2, #4
 757 0074 2E4B     		ldr	r3, .L86+4
 758 0076 1A60     		str	r2, [r3]
 451:Generated_Source\PSoC4/cyfitter_cfg.c **** 			break;
 759              		.loc 1 451 0
 760 0078 56E0     		b	.L50
 761              	.L64:
 452:Generated_Source\PSoC4/cyfitter_cfg.c **** 		case 11u:
 453:Generated_Source\PSoC4/cyfitter_cfg.c **** 			CY_SET_REG32((void CYXDATA *)CYREG_CTB1_CTBBUS_SW_CLEAR, (0x80u));
 762              		.loc 1 453 0
 763 007a 8022     		movs	r2, #128
 764 007c 314B     		ldr	r3, .L86+24
 765 007e 1A60     		str	r2, [r3]
 454:Generated_Source\PSoC4/cyfitter_cfg.c **** 			break;
 766              		.loc 1 454 0
 767 0080 52E0     		b	.L50
 768              	.L65:
 455:Generated_Source\PSoC4/cyfitter_cfg.c **** 		case 12u:
 456:Generated_Source\PSoC4/cyfitter_cfg.c **** 			CY_SET_REG32((void CYXDATA *)CYREG_CTB0_CTBBUS_SW_CLEAR, (0x04u));
 769              		.loc 1 456 0
 770 0082 0422     		movs	r2, #4
 771 0084 2A4B     		ldr	r3, .L86+4
 772 0086 1A60     		str	r2, [r3]
 457:Generated_Source\PSoC4/cyfitter_cfg.c **** 			break;
 773              		.loc 1 457 0
 774 0088 4EE0     		b	.L50
 775              	.L66:
 458:Generated_Source\PSoC4/cyfitter_cfg.c **** 		case 13u:
 459:Generated_Source\PSoC4/cyfitter_cfg.c **** 			CY_SET_REG32((void CYXDATA *)CYREG_CTB1_CTBBUS_SW_CLEAR, (0x40u));
 776              		.loc 1 459 0
ARM GAS  C:\Users\cdrow\AppData\Local\Temp\ccCscaoD.s 			page 23


 777 008a 4022     		movs	r2, #64
 778 008c 2D4B     		ldr	r3, .L86+24
 779 008e 1A60     		str	r2, [r3]
 460:Generated_Source\PSoC4/cyfitter_cfg.c **** 			break;
 780              		.loc 1 460 0
 781 0090 4AE0     		b	.L50
 782              	.L67:
 461:Generated_Source\PSoC4/cyfitter_cfg.c **** 		case 14u:
 462:Generated_Source\PSoC4/cyfitter_cfg.c **** 			CY_SET_REG32((void CYXDATA *)CYREG_CTB0_CTBBUS_SW_CLEAR, (0x04u));
 783              		.loc 1 462 0
 784 0092 0422     		movs	r2, #4
 785 0094 264B     		ldr	r3, .L86+4
 786 0096 1A60     		str	r2, [r3]
 463:Generated_Source\PSoC4/cyfitter_cfg.c **** 			break;
 787              		.loc 1 463 0
 788 0098 46E0     		b	.L50
 789              	.L68:
 464:Generated_Source\PSoC4/cyfitter_cfg.c **** 		case 15u:
 465:Generated_Source\PSoC4/cyfitter_cfg.c **** 			CY_SET_REG32((void CYXDATA *)CYREG_CTB1_CTBBUS_SW_CLEAR, (0x20u));
 790              		.loc 1 465 0
 791 009a 2022     		movs	r2, #32
 792 009c 294B     		ldr	r3, .L86+24
 793 009e 1A60     		str	r2, [r3]
 466:Generated_Source\PSoC4/cyfitter_cfg.c **** 			break;
 794              		.loc 1 466 0
 795 00a0 42E0     		b	.L50
 796              	.L69:
 467:Generated_Source\PSoC4/cyfitter_cfg.c **** 		case 16u:
 468:Generated_Source\PSoC4/cyfitter_cfg.c **** 			CY_SET_REG32((void CYXDATA *)CYREG_CTB0_CTBBUS_SW_CLEAR, (0x04u));
 797              		.loc 1 468 0
 798 00a2 0422     		movs	r2, #4
 799 00a4 224B     		ldr	r3, .L86+4
 800 00a6 1A60     		str	r2, [r3]
 469:Generated_Source\PSoC4/cyfitter_cfg.c **** 			break;
 801              		.loc 1 469 0
 802 00a8 3EE0     		b	.L50
 803              	.L70:
 470:Generated_Source\PSoC4/cyfitter_cfg.c **** 		case 17u:
 471:Generated_Source\PSoC4/cyfitter_cfg.c **** 			CY_SET_REG32((void CYXDATA *)CYREG_CTB1_CTBBUS_SW_CLEAR, (0x10u));
 804              		.loc 1 471 0
 805 00aa 1022     		movs	r2, #16
 806 00ac 254B     		ldr	r3, .L86+24
 807 00ae 1A60     		str	r2, [r3]
 472:Generated_Source\PSoC4/cyfitter_cfg.c **** 			break;
 808              		.loc 1 472 0
 809 00b0 3AE0     		b	.L50
 810              	.L71:
 473:Generated_Source\PSoC4/cyfitter_cfg.c **** 		case 18u:
 474:Generated_Source\PSoC4/cyfitter_cfg.c **** 			CY_SET_REG32((void CYXDATA *)CYREG_CTB0_CTBBUS_SW_CLEAR, (0x04u));
 811              		.loc 1 474 0
 812 00b2 0422     		movs	r2, #4
 813 00b4 1E4B     		ldr	r3, .L86+4
 814 00b6 1A60     		str	r2, [r3]
 475:Generated_Source\PSoC4/cyfitter_cfg.c **** 			break;
 815              		.loc 1 475 0
 816 00b8 36E0     		b	.L50
 817              	.L72:
ARM GAS  C:\Users\cdrow\AppData\Local\Temp\ccCscaoD.s 			page 24


 476:Generated_Source\PSoC4/cyfitter_cfg.c **** 		case 19u:
 477:Generated_Source\PSoC4/cyfitter_cfg.c **** 			CY_SET_REG32((void CYXDATA *)CYREG_CTB1_CTBBUS_SW_CLEAR, (0x08u));
 818              		.loc 1 477 0
 819 00ba 0822     		movs	r2, #8
 820 00bc 214B     		ldr	r3, .L86+24
 821 00be 1A60     		str	r2, [r3]
 478:Generated_Source\PSoC4/cyfitter_cfg.c **** 			break;
 822              		.loc 1 478 0
 823 00c0 32E0     		b	.L50
 824              	.L73:
 479:Generated_Source\PSoC4/cyfitter_cfg.c **** 		case 20u:
 480:Generated_Source\PSoC4/cyfitter_cfg.c **** 			CY_SET_REG32((void CYXDATA *)CYREG_CTB0_CTBBUS_SW_CLEAR, (0x04u));
 825              		.loc 1 480 0
 826 00c2 0422     		movs	r2, #4
 827 00c4 1A4B     		ldr	r3, .L86+4
 828 00c6 1A60     		str	r2, [r3]
 481:Generated_Source\PSoC4/cyfitter_cfg.c **** 			break;
 829              		.loc 1 481 0
 830 00c8 2EE0     		b	.L50
 831              	.L74:
 482:Generated_Source\PSoC4/cyfitter_cfg.c **** 		case 21u:
 483:Generated_Source\PSoC4/cyfitter_cfg.c **** 			CY_SET_REG32((void CYXDATA *)CYREG_CTB1_CTBBUS_SW_CLEAR, (0x04u));
 832              		.loc 1 483 0
 833 00ca 0422     		movs	r2, #4
 834 00cc 1D4B     		ldr	r3, .L86+24
 835 00ce 1A60     		str	r2, [r3]
 484:Generated_Source\PSoC4/cyfitter_cfg.c **** 			break;
 836              		.loc 1 484 0
 837 00d0 2AE0     		b	.L50
 838              	.L75:
 485:Generated_Source\PSoC4/cyfitter_cfg.c **** 		case 22u:
 486:Generated_Source\PSoC4/cyfitter_cfg.c **** 			CY_SET_REG32((void CYXDATA *)CYREG_CTB0_CTBBUS_SW_CLEAR, (0x04u));
 839              		.loc 1 486 0
 840 00d2 0422     		movs	r2, #4
 841 00d4 164B     		ldr	r3, .L86+4
 842 00d6 1A60     		str	r2, [r3]
 487:Generated_Source\PSoC4/cyfitter_cfg.c **** 			break;
 843              		.loc 1 487 0
 844 00d8 26E0     		b	.L50
 845              	.L76:
 488:Generated_Source\PSoC4/cyfitter_cfg.c **** 		case 23u:
 489:Generated_Source\PSoC4/cyfitter_cfg.c **** 			CY_SET_REG32((void CYXDATA *)CYREG_CTB1_CTBBUS_SW_CLEAR, (0x02u));
 846              		.loc 1 489 0
 847 00da 0222     		movs	r2, #2
 848 00dc 194B     		ldr	r3, .L86+24
 849 00de 1A60     		str	r2, [r3]
 490:Generated_Source\PSoC4/cyfitter_cfg.c **** 			break;
 850              		.loc 1 490 0
 851 00e0 22E0     		b	.L50
 852              	.L77:
 491:Generated_Source\PSoC4/cyfitter_cfg.c **** 		case 24u:
 492:Generated_Source\PSoC4/cyfitter_cfg.c **** 			CY_SET_REG32((void CYXDATA *)CYREG_CTB0_CTBBUS_SW_CLEAR, (0x04u));
 853              		.loc 1 492 0
 854 00e2 0422     		movs	r2, #4
 855 00e4 124B     		ldr	r3, .L86+4
 856 00e6 1A60     		str	r2, [r3]
 493:Generated_Source\PSoC4/cyfitter_cfg.c **** 			break;
ARM GAS  C:\Users\cdrow\AppData\Local\Temp\ccCscaoD.s 			page 25


 857              		.loc 1 493 0
 858 00e8 1EE0     		b	.L50
 859              	.L78:
 494:Generated_Source\PSoC4/cyfitter_cfg.c **** 		case 25u:
 495:Generated_Source\PSoC4/cyfitter_cfg.c **** 			CY_SET_REG32((void CYXDATA *)CYREG_CTB1_CTBBUS_SW_CLEAR, (0x01u));
 860              		.loc 1 495 0
 861 00ea 0122     		movs	r2, #1
 862 00ec 154B     		ldr	r3, .L86+24
 863 00ee 1A60     		str	r2, [r3]
 496:Generated_Source\PSoC4/cyfitter_cfg.c **** 			break;
 864              		.loc 1 496 0
 865 00f0 1AE0     		b	.L50
 866              	.L79:
 497:Generated_Source\PSoC4/cyfitter_cfg.c **** 		case 26u:
 498:Generated_Source\PSoC4/cyfitter_cfg.c **** 			CY_SET_REG32((void CYXDATA *)CYREG_CTB0_CTBBUS_SW_CLEAR, (0x04u));
 867              		.loc 1 498 0
 868 00f2 0422     		movs	r2, #4
 869 00f4 0E4B     		ldr	r3, .L86+4
 870 00f6 1A60     		str	r2, [r3]
 499:Generated_Source\PSoC4/cyfitter_cfg.c **** 			break;
 871              		.loc 1 499 0
 872 00f8 16E0     		b	.L50
 873              	.L80:
 500:Generated_Source\PSoC4/cyfitter_cfg.c **** 		case 27u:
 501:Generated_Source\PSoC4/cyfitter_cfg.c **** 			CY_SET_REG32((void CYXDATA *)CYREG_CTB0_OA1_SW_CLEAR, (0x04u));
 874              		.loc 1 501 0
 875 00fa 0422     		movs	r2, #4
 876 00fc 124B     		ldr	r3, .L86+28
 877 00fe 1A60     		str	r2, [r3]
 502:Generated_Source\PSoC4/cyfitter_cfg.c **** 			break;
 878              		.loc 1 502 0
 879 0100 12E0     		b	.L50
 880              	.L81:
 503:Generated_Source\PSoC4/cyfitter_cfg.c **** 		case 28u:
 504:Generated_Source\PSoC4/cyfitter_cfg.c **** 			CY_SET_REG32((void CYXDATA *)CYREG_CTB0_CTBBUS_SW_CLEAR, (0x04u));
 881              		.loc 1 504 0
 882 0102 0422     		movs	r2, #4
 883 0104 0A4B     		ldr	r3, .L86+4
 884 0106 1A60     		str	r2, [r3]
 505:Generated_Source\PSoC4/cyfitter_cfg.c **** 			break;
 885              		.loc 1 505 0
 886 0108 0EE0     		b	.L50
 887              	.L82:
 506:Generated_Source\PSoC4/cyfitter_cfg.c **** 		case 29u:
 507:Generated_Source\PSoC4/cyfitter_cfg.c **** 			CY_SET_REG32((void CYXDATA *)CYREG_CTB0_CTBBUS_SW_CLEAR, (0x08u));
 888              		.loc 1 507 0
 889 010a 0822     		movs	r2, #8
 890 010c 084B     		ldr	r3, .L86+4
 891 010e 1A60     		str	r2, [r3]
 508:Generated_Source\PSoC4/cyfitter_cfg.c **** 			break;
 892              		.loc 1 508 0
 893 0110 0AE0     		b	.L50
 894              	.L83:
 509:Generated_Source\PSoC4/cyfitter_cfg.c **** 		case 30u:
 510:Generated_Source\PSoC4/cyfitter_cfg.c **** 			CY_SET_REG32((void CYXDATA *)CYREG_CTB0_CTBBUS_SW_CLEAR, (0x04u));
 895              		.loc 1 510 0
 896 0112 0422     		movs	r2, #4
ARM GAS  C:\Users\cdrow\AppData\Local\Temp\ccCscaoD.s 			page 26


 897 0114 064B     		ldr	r3, .L86+4
 898 0116 1A60     		str	r2, [r3]
 511:Generated_Source\PSoC4/cyfitter_cfg.c **** 			break;
 899              		.loc 1 511 0
 900 0118 06E0     		b	.L50
 901              	.L84:
 512:Generated_Source\PSoC4/cyfitter_cfg.c **** 		case 31u:
 513:Generated_Source\PSoC4/cyfitter_cfg.c **** 			CY_SET_REG32((void CYXDATA *)CYREG_CTB0_CTBBUS_SW_CLEAR, (0x02u));
 902              		.loc 1 513 0
 903 011a 0222     		movs	r2, #2
 904 011c 044B     		ldr	r3, .L86+4
 905 011e 1A60     		str	r2, [r3]
 514:Generated_Source\PSoC4/cyfitter_cfg.c **** 			break;
 906              		.loc 1 514 0
 907 0120 02E0     		b	.L50
 908              	.L85:
 515:Generated_Source\PSoC4/cyfitter_cfg.c **** 		case 32u:
 516:Generated_Source\PSoC4/cyfitter_cfg.c **** 			CY_SET_REG32((void CYXDATA *)CYREG_CTB0_CTBBUS_SW_CLEAR, (0x02u));
 909              		.loc 1 516 0
 910 0122 0222     		movs	r2, #2
 911 0124 024B     		ldr	r3, .L86+4
 912 0126 1A60     		str	r2, [r3]
 913              	.L50:
 517:Generated_Source\PSoC4/cyfitter_cfg.c **** 			break;
 518:Generated_Source\PSoC4/cyfitter_cfg.c **** 		default:
 519:Generated_Source\PSoC4/cyfitter_cfg.c **** 			break;
 520:Generated_Source\PSoC4/cyfitter_cfg.c **** 	}
 521:Generated_Source\PSoC4/cyfitter_cfg.c **** }
 914              		.loc 1 521 0
 915              		@ sp needed
 916 0128 7047     		bx	lr
 917              	.L87:
 918 012a C046     		.align	2
 919              	.L86:
 920 012c 84000000 		.word	.L53
 921 0130 94003040 		.word	1076887700
 922 0134 00030240 		.word	1073873664
 923 0138 FFF8FFFF 		.word	-1793
 924 013c FF8FFFFF 		.word	-28673
 925 0140 FFFFF8FF 		.word	-458753
 926 0144 94003140 		.word	1076953236
 927 0148 8C003040 		.word	1076887692
 928              		.cfi_endproc
 929              	.LFE8:
 930              		.size	AMux_1_CYAMUXSIDE_A_Unset, .-AMux_1_CYAMUXSIDE_A_Unset
 931              		.section	.text.AMux_1_CYAMUXSIDE_B_Set,"ax",%progbits
 932              		.align	2
 933              		.global	AMux_1_CYAMUXSIDE_B_Set
 934              		.code	16
 935              		.thumb_func
 936              		.type	AMux_1_CYAMUXSIDE_B_Set, %function
 937              	AMux_1_CYAMUXSIDE_B_Set:
 938              	.LFB9:
 522:Generated_Source\PSoC4/cyfitter_cfg.c **** 
 523:Generated_Source\PSoC4/cyfitter_cfg.c **** /*******************************************************************************
 524:Generated_Source\PSoC4/cyfitter_cfg.c **** * Function Name: AMux_1_CYAMUXSIDE_B_Set
 525:Generated_Source\PSoC4/cyfitter_cfg.c **** ********************************************************************************
ARM GAS  C:\Users\cdrow\AppData\Local\Temp\ccCscaoD.s 			page 27


 526:Generated_Source\PSoC4/cyfitter_cfg.c **** * Summary:
 527:Generated_Source\PSoC4/cyfitter_cfg.c **** *  This function is used to set a particular channel as active on the AMux.
 528:Generated_Source\PSoC4/cyfitter_cfg.c **** *
 529:Generated_Source\PSoC4/cyfitter_cfg.c **** * Parameters:  
 530:Generated_Source\PSoC4/cyfitter_cfg.c **** *   channel - The mux channel input to set as active
 531:Generated_Source\PSoC4/cyfitter_cfg.c **** *
 532:Generated_Source\PSoC4/cyfitter_cfg.c **** * Return:
 533:Generated_Source\PSoC4/cyfitter_cfg.c **** *   void
 534:Generated_Source\PSoC4/cyfitter_cfg.c **** *
 535:Generated_Source\PSoC4/cyfitter_cfg.c **** *******************************************************************************/
 536:Generated_Source\PSoC4/cyfitter_cfg.c **** void AMux_1_CYAMUXSIDE_B_Set(uint8 channel)
 537:Generated_Source\PSoC4/cyfitter_cfg.c **** {
 939              		.loc 1 537 0
 940              		.cfi_startproc
 941              		@ args = 0, pretend = 0, frame = 0
 942              		@ frame_needed = 0, uses_anonymous_args = 0
 943              		@ link register save eliminated.
 944              	.LVL14:
 538:Generated_Source\PSoC4/cyfitter_cfg.c **** 	switch (channel) {
 945              		.loc 1 538 0
 946 0000 2028     		cmp	r0, #32
 947 0002 00D9     		bls	.LCB783
 948 0004 A8E0     		b	.L88	@long jump
 949              	.LCB783:
 950 0006 8000     		lsls	r0, r0, #2
 951              	.LVL15:
 952 0008 544B     		ldr	r3, .L124
 953 000a 1B58     		ldr	r3, [r3, r0]
 954 000c 9F46     		mov	pc, r3
 955              		.section	.rodata
 956              		.align	2
 957              	.L91:
 958 0108 0E000000 		.word	.L90
 959 010c 18000000 		.word	.L92
 960 0110 22000000 		.word	.L93
 961 0114 2C000000 		.word	.L94
 962 0118 36000000 		.word	.L95
 963 011c 40000000 		.word	.L96
 964 0120 4A000000 		.word	.L97
 965 0124 54000000 		.word	.L98
 966 0128 5E000000 		.word	.L99
 967 012c 68000000 		.word	.L100
 968 0130 72000000 		.word	.L101
 969 0134 7C000000 		.word	.L102
 970 0138 86000000 		.word	.L103
 971 013c 90000000 		.word	.L104
 972 0140 9A000000 		.word	.L105
 973 0144 A2000000 		.word	.L106
 974 0148 AC000000 		.word	.L107
 975 014c B4000000 		.word	.L108
 976 0150 BE000000 		.word	.L109
 977 0154 C8000000 		.word	.L110
 978 0158 D2000000 		.word	.L111
 979 015c DC000000 		.word	.L112
 980 0160 E6000000 		.word	.L113
 981 0164 F0000000 		.word	.L114
 982 0168 FA000000 		.word	.L115
ARM GAS  C:\Users\cdrow\AppData\Local\Temp\ccCscaoD.s 			page 28


 983 016c 04010000 		.word	.L116
 984 0170 0E010000 		.word	.L117
 985 0174 1E010000 		.word	.L118
 986 0178 28010000 		.word	.L119
 987 017c 32010000 		.word	.L120
 988 0180 3C010000 		.word	.L121
 989 0184 46010000 		.word	.L122
 990 0188 50010000 		.word	.L123
 991              		.section	.text.AMux_1_CYAMUXSIDE_B_Set
 992              	.L90:
 539:Generated_Source\PSoC4/cyfitter_cfg.c **** 		case 0u:
 540:Generated_Source\PSoC4/cyfitter_cfg.c **** 			CY_SET_REG32((void CYXDATA *)CYREG_SAR_MUX_SWITCH0, (0x200u));
 993              		.loc 1 540 0
 994 000e 8022     		movs	r2, #128
 995 0010 9200     		lsls	r2, r2, #2
 996 0012 534B     		ldr	r3, .L124+4
 997 0014 1A60     		str	r2, [r3]
 541:Generated_Source\PSoC4/cyfitter_cfg.c **** 			break;
 998              		.loc 1 541 0
 999 0016 9FE0     		b	.L88
 1000              	.L92:
 542:Generated_Source\PSoC4/cyfitter_cfg.c **** 		case 1u:
 543:Generated_Source\PSoC4/cyfitter_cfg.c **** 			CY_SET_REG32((void CYXDATA *)CYREG_SAR_MUX_SWITCH0, (0x2000u));
 1001              		.loc 1 543 0
 1002 0018 8022     		movs	r2, #128
 1003 001a 9201     		lsls	r2, r2, #6
 1004 001c 504B     		ldr	r3, .L124+4
 1005 001e 1A60     		str	r2, [r3]
 544:Generated_Source\PSoC4/cyfitter_cfg.c **** 			break;
 1006              		.loc 1 544 0
 1007 0020 9AE0     		b	.L88
 1008              	.L93:
 545:Generated_Source\PSoC4/cyfitter_cfg.c **** 		case 2u:
 546:Generated_Source\PSoC4/cyfitter_cfg.c **** 			CY_SET_REG32((void CYXDATA *)CYREG_SAR_MUX_SWITCH0, (0x400u));
 1009              		.loc 1 546 0
 1010 0022 8022     		movs	r2, #128
 1011 0024 D200     		lsls	r2, r2, #3
 1012 0026 4E4B     		ldr	r3, .L124+4
 1013 0028 1A60     		str	r2, [r3]
 547:Generated_Source\PSoC4/cyfitter_cfg.c **** 			break;
 1014              		.loc 1 547 0
 1015 002a 95E0     		b	.L88
 1016              	.L94:
 548:Generated_Source\PSoC4/cyfitter_cfg.c **** 		case 3u:
 549:Generated_Source\PSoC4/cyfitter_cfg.c **** 			CY_SET_REG32((void CYXDATA *)CYREG_SAR_MUX_SWITCH0, (0x2000u));
 1017              		.loc 1 549 0
 1018 002c 8022     		movs	r2, #128
 1019 002e 9201     		lsls	r2, r2, #6
 1020 0030 4B4B     		ldr	r3, .L124+4
 1021 0032 1A60     		str	r2, [r3]
 550:Generated_Source\PSoC4/cyfitter_cfg.c **** 			break;
 1022              		.loc 1 550 0
 1023 0034 90E0     		b	.L88
 1024              	.L95:
 551:Generated_Source\PSoC4/cyfitter_cfg.c **** 		case 4u:
 552:Generated_Source\PSoC4/cyfitter_cfg.c **** 			CY_SET_REG32((void CYXDATA *)CYREG_SAR_MUX_SWITCH0, (0x800u));
 1025              		.loc 1 552 0
ARM GAS  C:\Users\cdrow\AppData\Local\Temp\ccCscaoD.s 			page 29


 1026 0036 8022     		movs	r2, #128
 1027 0038 1201     		lsls	r2, r2, #4
 1028 003a 494B     		ldr	r3, .L124+4
 1029 003c 1A60     		str	r2, [r3]
 553:Generated_Source\PSoC4/cyfitter_cfg.c **** 			break;
 1030              		.loc 1 553 0
 1031 003e 8BE0     		b	.L88
 1032              	.L96:
 554:Generated_Source\PSoC4/cyfitter_cfg.c **** 		case 5u:
 555:Generated_Source\PSoC4/cyfitter_cfg.c **** 			CY_SET_REG32((void CYXDATA *)CYREG_SAR_MUX_SWITCH0, (0x2000u));
 1033              		.loc 1 555 0
 1034 0040 8022     		movs	r2, #128
 1035 0042 9201     		lsls	r2, r2, #6
 1036 0044 464B     		ldr	r3, .L124+4
 1037 0046 1A60     		str	r2, [r3]
 556:Generated_Source\PSoC4/cyfitter_cfg.c **** 			break;
 1038              		.loc 1 556 0
 1039 0048 86E0     		b	.L88
 1040              	.L97:
 557:Generated_Source\PSoC4/cyfitter_cfg.c **** 		case 6u:
 558:Generated_Source\PSoC4/cyfitter_cfg.c **** 			CY_SET_REG32((void CYXDATA *)CYREG_SAR_MUX_SWITCH0, (0x1000u));
 1041              		.loc 1 558 0
 1042 004a 8022     		movs	r2, #128
 1043 004c 5201     		lsls	r2, r2, #5
 1044 004e 444B     		ldr	r3, .L124+4
 1045 0050 1A60     		str	r2, [r3]
 559:Generated_Source\PSoC4/cyfitter_cfg.c **** 			break;
 1046              		.loc 1 559 0
 1047 0052 81E0     		b	.L88
 1048              	.L98:
 560:Generated_Source\PSoC4/cyfitter_cfg.c **** 		case 7u:
 561:Generated_Source\PSoC4/cyfitter_cfg.c **** 			CY_SET_REG32((void CYXDATA *)CYREG_SAR_MUX_SWITCH0, (0x2000u));
 1049              		.loc 1 561 0
 1050 0054 8022     		movs	r2, #128
 1051 0056 9201     		lsls	r2, r2, #6
 1052 0058 414B     		ldr	r3, .L124+4
 1053 005a 1A60     		str	r2, [r3]
 562:Generated_Source\PSoC4/cyfitter_cfg.c **** 			break;
 1054              		.loc 1 562 0
 1055 005c 7CE0     		b	.L88
 1056              	.L99:
 563:Generated_Source\PSoC4/cyfitter_cfg.c **** 		case 8u:
 564:Generated_Source\PSoC4/cyfitter_cfg.c **** 			CY_SET_REG32((void CYXDATA *)CYREG_SAR_MUX_SWITCH0, (0x100u));
 1057              		.loc 1 564 0
 1058 005e 8022     		movs	r2, #128
 1059 0060 5200     		lsls	r2, r2, #1
 1060 0062 3F4B     		ldr	r3, .L124+4
 1061 0064 1A60     		str	r2, [r3]
 565:Generated_Source\PSoC4/cyfitter_cfg.c **** 			break;
 1062              		.loc 1 565 0
 1063 0066 77E0     		b	.L88
 1064              	.L100:
 566:Generated_Source\PSoC4/cyfitter_cfg.c **** 		case 9u:
 567:Generated_Source\PSoC4/cyfitter_cfg.c **** 			CY_SET_REG32((void CYXDATA *)CYREG_SAR_MUX_SWITCH0, (0x2000u));
 1065              		.loc 1 567 0
 1066 0068 8022     		movs	r2, #128
 1067 006a 9201     		lsls	r2, r2, #6
ARM GAS  C:\Users\cdrow\AppData\Local\Temp\ccCscaoD.s 			page 30


 1068 006c 3C4B     		ldr	r3, .L124+4
 1069 006e 1A60     		str	r2, [r3]
 568:Generated_Source\PSoC4/cyfitter_cfg.c **** 			break;
 1070              		.loc 1 568 0
 1071 0070 72E0     		b	.L88
 1072              	.L101:
 569:Generated_Source\PSoC4/cyfitter_cfg.c **** 		case 10u:
 570:Generated_Source\PSoC4/cyfitter_cfg.c **** 			CY_SET_REG32((void CYXDATA *)CYREG_CTB1_CTBBUS_SW, (0x80000u));
 1073              		.loc 1 570 0
 1074 0072 8022     		movs	r2, #128
 1075 0074 1203     		lsls	r2, r2, #12
 1076 0076 3B4B     		ldr	r3, .L124+8
 1077 0078 1A60     		str	r2, [r3]
 571:Generated_Source\PSoC4/cyfitter_cfg.c **** 			break;
 1078              		.loc 1 571 0
 1079 007a 6DE0     		b	.L88
 1080              	.L102:
 572:Generated_Source\PSoC4/cyfitter_cfg.c **** 		case 11u:
 573:Generated_Source\PSoC4/cyfitter_cfg.c **** 			CY_SET_REG32((void CYXDATA *)CYREG_SAR_MUX_SWITCH0, (0x2000u));
 1081              		.loc 1 573 0
 1082 007c 8022     		movs	r2, #128
 1083 007e 9201     		lsls	r2, r2, #6
 1084 0080 374B     		ldr	r3, .L124+4
 1085 0082 1A60     		str	r2, [r3]
 574:Generated_Source\PSoC4/cyfitter_cfg.c **** 			break;
 1086              		.loc 1 574 0
 1087 0084 68E0     		b	.L88
 1088              	.L103:
 575:Generated_Source\PSoC4/cyfitter_cfg.c **** 		case 12u:
 576:Generated_Source\PSoC4/cyfitter_cfg.c **** 			CY_SET_REG32((void CYXDATA *)CYREG_CTB1_CTBBUS_SW, (0x8000u));
 1089              		.loc 1 576 0
 1090 0086 8022     		movs	r2, #128
 1091 0088 1202     		lsls	r2, r2, #8
 1092 008a 364B     		ldr	r3, .L124+8
 1093 008c 1A60     		str	r2, [r3]
 577:Generated_Source\PSoC4/cyfitter_cfg.c **** 			break;
 1094              		.loc 1 577 0
 1095 008e 63E0     		b	.L88
 1096              	.L104:
 578:Generated_Source\PSoC4/cyfitter_cfg.c **** 		case 13u:
 579:Generated_Source\PSoC4/cyfitter_cfg.c **** 			CY_SET_REG32((void CYXDATA *)CYREG_SAR_MUX_SWITCH0, (0x2000u));
 1097              		.loc 1 579 0
 1098 0090 8022     		movs	r2, #128
 1099 0092 9201     		lsls	r2, r2, #6
 1100 0094 324B     		ldr	r3, .L124+4
 1101 0096 1A60     		str	r2, [r3]
 580:Generated_Source\PSoC4/cyfitter_cfg.c **** 			break;
 1102              		.loc 1 580 0
 1103 0098 5EE0     		b	.L88
 1104              	.L105:
 581:Generated_Source\PSoC4/cyfitter_cfg.c **** 		case 14u:
 582:Generated_Source\PSoC4/cyfitter_cfg.c **** 			CY_SET_REG32((void CYXDATA *)CYREG_CTB1_OA1_SW, (0x02u));
 1105              		.loc 1 582 0
 1106 009a 0222     		movs	r2, #2
 1107 009c 324B     		ldr	r3, .L124+12
 1108 009e 1A60     		str	r2, [r3]
 583:Generated_Source\PSoC4/cyfitter_cfg.c **** 			break;
ARM GAS  C:\Users\cdrow\AppData\Local\Temp\ccCscaoD.s 			page 31


 1109              		.loc 1 583 0
 1110 00a0 5AE0     		b	.L88
 1111              	.L106:
 584:Generated_Source\PSoC4/cyfitter_cfg.c **** 		case 15u:
 585:Generated_Source\PSoC4/cyfitter_cfg.c **** 			CY_SET_REG32((void CYXDATA *)CYREG_SAR_MUX_SWITCH0, (0x2000u));
 1112              		.loc 1 585 0
 1113 00a2 8022     		movs	r2, #128
 1114 00a4 9201     		lsls	r2, r2, #6
 1115 00a6 2E4B     		ldr	r3, .L124+4
 1116 00a8 1A60     		str	r2, [r3]
 586:Generated_Source\PSoC4/cyfitter_cfg.c **** 			break;
 1117              		.loc 1 586 0
 1118 00aa 55E0     		b	.L88
 1119              	.L107:
 587:Generated_Source\PSoC4/cyfitter_cfg.c **** 		case 16u:
 588:Generated_Source\PSoC4/cyfitter_cfg.c **** 			CY_SET_REG32((void CYXDATA *)CYREG_CTB1_OA1_SW, (0x04u));
 1120              		.loc 1 588 0
 1121 00ac 0422     		movs	r2, #4
 1122 00ae 2E4B     		ldr	r3, .L124+12
 1123 00b0 1A60     		str	r2, [r3]
 589:Generated_Source\PSoC4/cyfitter_cfg.c **** 			break;
 1124              		.loc 1 589 0
 1125 00b2 51E0     		b	.L88
 1126              	.L108:
 590:Generated_Source\PSoC4/cyfitter_cfg.c **** 		case 17u:
 591:Generated_Source\PSoC4/cyfitter_cfg.c **** 			CY_SET_REG32((void CYXDATA *)CYREG_SAR_MUX_SWITCH0, (0x2000u));
 1127              		.loc 1 591 0
 1128 00b4 8022     		movs	r2, #128
 1129 00b6 9201     		lsls	r2, r2, #6
 1130 00b8 294B     		ldr	r3, .L124+4
 1131 00ba 1A60     		str	r2, [r3]
 592:Generated_Source\PSoC4/cyfitter_cfg.c **** 			break;
 1132              		.loc 1 592 0
 1133 00bc 4CE0     		b	.L88
 1134              	.L109:
 593:Generated_Source\PSoC4/cyfitter_cfg.c **** 		case 18u:
 594:Generated_Source\PSoC4/cyfitter_cfg.c **** 			CY_SET_REG32((void CYXDATA *)CYREG_CTB1_CTBBUS_SW, (0x20000u));
 1135              		.loc 1 594 0
 1136 00be 8022     		movs	r2, #128
 1137 00c0 9202     		lsls	r2, r2, #10
 1138 00c2 284B     		ldr	r3, .L124+8
 1139 00c4 1A60     		str	r2, [r3]
 595:Generated_Source\PSoC4/cyfitter_cfg.c **** 			break;
 1140              		.loc 1 595 0
 1141 00c6 47E0     		b	.L88
 1142              	.L110:
 596:Generated_Source\PSoC4/cyfitter_cfg.c **** 		case 19u:
 597:Generated_Source\PSoC4/cyfitter_cfg.c **** 			CY_SET_REG32((void CYXDATA *)CYREG_SAR_MUX_SWITCH0, (0x2000u));
 1143              		.loc 1 597 0
 1144 00c8 8022     		movs	r2, #128
 1145 00ca 9201     		lsls	r2, r2, #6
 1146 00cc 244B     		ldr	r3, .L124+4
 1147 00ce 1A60     		str	r2, [r3]
 598:Generated_Source\PSoC4/cyfitter_cfg.c **** 			break;
 1148              		.loc 1 598 0
 1149 00d0 42E0     		b	.L88
 1150              	.L111:
ARM GAS  C:\Users\cdrow\AppData\Local\Temp\ccCscaoD.s 			page 32


 599:Generated_Source\PSoC4/cyfitter_cfg.c **** 		case 20u:
 600:Generated_Source\PSoC4/cyfitter_cfg.c **** 			CY_SET_REG32((void CYXDATA *)CYREG_CTB1_CTBBUS_SW, (0x2000u));
 1151              		.loc 1 600 0
 1152 00d2 8022     		movs	r2, #128
 1153 00d4 9201     		lsls	r2, r2, #6
 1154 00d6 234B     		ldr	r3, .L124+8
 1155 00d8 1A60     		str	r2, [r3]
 601:Generated_Source\PSoC4/cyfitter_cfg.c **** 			break;
 1156              		.loc 1 601 0
 1157 00da 3DE0     		b	.L88
 1158              	.L112:
 602:Generated_Source\PSoC4/cyfitter_cfg.c **** 		case 21u:
 603:Generated_Source\PSoC4/cyfitter_cfg.c **** 			CY_SET_REG32((void CYXDATA *)CYREG_SAR_MUX_SWITCH0, (0x2000u));
 1159              		.loc 1 603 0
 1160 00dc 8022     		movs	r2, #128
 1161 00de 9201     		lsls	r2, r2, #6
 1162 00e0 1F4B     		ldr	r3, .L124+4
 1163 00e2 1A60     		str	r2, [r3]
 604:Generated_Source\PSoC4/cyfitter_cfg.c **** 			break;
 1164              		.loc 1 604 0
 1165 00e4 38E0     		b	.L88
 1166              	.L113:
 605:Generated_Source\PSoC4/cyfitter_cfg.c **** 		case 22u:
 606:Generated_Source\PSoC4/cyfitter_cfg.c **** 			CY_SET_REG32((void CYXDATA *)CYREG_CTB1_CTBBUS_SW, (0x10000u));
 1167              		.loc 1 606 0
 1168 00e6 8022     		movs	r2, #128
 1169 00e8 5202     		lsls	r2, r2, #9
 1170 00ea 1E4B     		ldr	r3, .L124+8
 1171 00ec 1A60     		str	r2, [r3]
 607:Generated_Source\PSoC4/cyfitter_cfg.c **** 			break;
 1172              		.loc 1 607 0
 1173 00ee 33E0     		b	.L88
 1174              	.L114:
 608:Generated_Source\PSoC4/cyfitter_cfg.c **** 		case 23u:
 609:Generated_Source\PSoC4/cyfitter_cfg.c **** 			CY_SET_REG32((void CYXDATA *)CYREG_SAR_MUX_SWITCH0, (0x2000u));
 1175              		.loc 1 609 0
 1176 00f0 8022     		movs	r2, #128
 1177 00f2 9201     		lsls	r2, r2, #6
 1178 00f4 1A4B     		ldr	r3, .L124+4
 1179 00f6 1A60     		str	r2, [r3]
 610:Generated_Source\PSoC4/cyfitter_cfg.c **** 			break;
 1180              		.loc 1 610 0
 1181 00f8 2EE0     		b	.L88
 1182              	.L115:
 611:Generated_Source\PSoC4/cyfitter_cfg.c **** 		case 24u:
 612:Generated_Source\PSoC4/cyfitter_cfg.c **** 			CY_SET_REG32((void CYXDATA *)CYREG_CTB1_CTBBUS_SW, (0x1000u));
 1183              		.loc 1 612 0
 1184 00fa 8022     		movs	r2, #128
 1185 00fc 5201     		lsls	r2, r2, #5
 1186 00fe 194B     		ldr	r3, .L124+8
 1187 0100 1A60     		str	r2, [r3]
 613:Generated_Source\PSoC4/cyfitter_cfg.c **** 			break;
 1188              		.loc 1 613 0
 1189 0102 29E0     		b	.L88
 1190              	.L116:
 614:Generated_Source\PSoC4/cyfitter_cfg.c **** 		case 25u:
 615:Generated_Source\PSoC4/cyfitter_cfg.c **** 			CY_SET_REG32((void CYXDATA *)CYREG_SAR_MUX_SWITCH0, (0x2000u));
ARM GAS  C:\Users\cdrow\AppData\Local\Temp\ccCscaoD.s 			page 33


 1191              		.loc 1 615 0
 1192 0104 8022     		movs	r2, #128
 1193 0106 9201     		lsls	r2, r2, #6
 1194 0108 154B     		ldr	r3, .L124+4
 1195 010a 1A60     		str	r2, [r3]
 616:Generated_Source\PSoC4/cyfitter_cfg.c **** 			break;
 1196              		.loc 1 616 0
 1197 010c 24E0     		b	.L88
 1198              	.L117:
 617:Generated_Source\PSoC4/cyfitter_cfg.c **** 		case 26u:
 618:Generated_Source\PSoC4/cyfitter_cfg.c **** 			CY_SET_REG32((void CYXDATA *)CYREG_CTB0_CTBBUS_SW, (0x4000u));
 1199              		.loc 1 618 0
 1200 010e 174B     		ldr	r3, .L124+16
 1201 0110 8022     		movs	r2, #128
 1202 0112 D201     		lsls	r2, r2, #7
 1203 0114 1A60     		str	r2, [r3]
 619:Generated_Source\PSoC4/cyfitter_cfg.c **** 			CY_SET_REG32((void CYXDATA *)CYREG_CTB0_CTBBUS_SW, (0x400000u));
 1204              		.loc 1 619 0
 1205 0116 8022     		movs	r2, #128
 1206 0118 D203     		lsls	r2, r2, #15
 1207 011a 1A60     		str	r2, [r3]
 620:Generated_Source\PSoC4/cyfitter_cfg.c **** 			break;
 1208              		.loc 1 620 0
 1209 011c 1CE0     		b	.L88
 1210              	.L118:
 621:Generated_Source\PSoC4/cyfitter_cfg.c **** 		case 27u:
 622:Generated_Source\PSoC4/cyfitter_cfg.c **** 			CY_SET_REG32((void CYXDATA *)CYREG_SAR_MUX_SWITCH0, (0x2000u));
 1211              		.loc 1 622 0
 1212 011e 8022     		movs	r2, #128
 1213 0120 9201     		lsls	r2, r2, #6
 1214 0122 0F4B     		ldr	r3, .L124+4
 1215 0124 1A60     		str	r2, [r3]
 623:Generated_Source\PSoC4/cyfitter_cfg.c **** 			break;
 1216              		.loc 1 623 0
 1217 0126 17E0     		b	.L88
 1218              	.L119:
 624:Generated_Source\PSoC4/cyfitter_cfg.c **** 		case 28u:
 625:Generated_Source\PSoC4/cyfitter_cfg.c **** 			CY_SET_REG32((void CYXDATA *)CYREG_CTB0_CTBBUS_SW, (0x20000u));
 1219              		.loc 1 625 0
 1220 0128 8022     		movs	r2, #128
 1221 012a 9202     		lsls	r2, r2, #10
 1222 012c 0F4B     		ldr	r3, .L124+16
 1223 012e 1A60     		str	r2, [r3]
 626:Generated_Source\PSoC4/cyfitter_cfg.c **** 			break;
 1224              		.loc 1 626 0
 1225 0130 12E0     		b	.L88
 1226              	.L120:
 627:Generated_Source\PSoC4/cyfitter_cfg.c **** 		case 29u:
 628:Generated_Source\PSoC4/cyfitter_cfg.c **** 			CY_SET_REG32((void CYXDATA *)CYREG_SAR_MUX_SWITCH0, (0x2000u));
 1227              		.loc 1 628 0
 1228 0132 8022     		movs	r2, #128
 1229 0134 9201     		lsls	r2, r2, #6
 1230 0136 0A4B     		ldr	r3, .L124+4
 1231 0138 1A60     		str	r2, [r3]
 629:Generated_Source\PSoC4/cyfitter_cfg.c **** 			break;
 1232              		.loc 1 629 0
 1233 013a 0DE0     		b	.L88
ARM GAS  C:\Users\cdrow\AppData\Local\Temp\ccCscaoD.s 			page 34


 1234              	.L121:
 630:Generated_Source\PSoC4/cyfitter_cfg.c **** 		case 30u:
 631:Generated_Source\PSoC4/cyfitter_cfg.c **** 			CY_SET_REG32((void CYXDATA *)CYREG_CTB0_CTBBUS_SW, (0x10000u));
 1235              		.loc 1 631 0
 1236 013c 8022     		movs	r2, #128
 1237 013e 5202     		lsls	r2, r2, #9
 1238 0140 0A4B     		ldr	r3, .L124+16
 1239 0142 1A60     		str	r2, [r3]
 632:Generated_Source\PSoC4/cyfitter_cfg.c **** 			break;
 1240              		.loc 1 632 0
 1241 0144 08E0     		b	.L88
 1242              	.L122:
 633:Generated_Source\PSoC4/cyfitter_cfg.c **** 		case 31u:
 634:Generated_Source\PSoC4/cyfitter_cfg.c **** 			CY_SET_REG32((void CYXDATA *)CYREG_SAR_MUX_SWITCH0, (0x2000u));
 1243              		.loc 1 634 0
 1244 0146 8022     		movs	r2, #128
 1245 0148 9201     		lsls	r2, r2, #6
 1246 014a 054B     		ldr	r3, .L124+4
 1247 014c 1A60     		str	r2, [r3]
 635:Generated_Source\PSoC4/cyfitter_cfg.c **** 			break;
 1248              		.loc 1 635 0
 1249 014e 03E0     		b	.L88
 1250              	.L123:
 636:Generated_Source\PSoC4/cyfitter_cfg.c **** 		case 32u:
 637:Generated_Source\PSoC4/cyfitter_cfg.c **** 			CY_SET_REG32((void CYXDATA *)CYREG_CTB0_CTBBUS_SW, (0x10000u));
 1251              		.loc 1 637 0
 1252 0150 8022     		movs	r2, #128
 1253 0152 5202     		lsls	r2, r2, #9
 1254 0154 054B     		ldr	r3, .L124+16
 1255 0156 1A60     		str	r2, [r3]
 1256              	.L88:
 638:Generated_Source\PSoC4/cyfitter_cfg.c **** 			break;
 639:Generated_Source\PSoC4/cyfitter_cfg.c **** 		default:
 640:Generated_Source\PSoC4/cyfitter_cfg.c **** 			break;
 641:Generated_Source\PSoC4/cyfitter_cfg.c **** 	}
 642:Generated_Source\PSoC4/cyfitter_cfg.c **** }
 1257              		.loc 1 642 0
 1258              		@ sp needed
 1259 0158 7047     		bx	lr
 1260              	.L125:
 1261 015a C046     		.align	2
 1262              	.L124:
 1263 015c 08010000 		.word	.L91
 1264 0160 00033A40 		.word	1077543680
 1265 0164 90003140 		.word	1076953232
 1266 0168 88003140 		.word	1076953224
 1267 016c 90003040 		.word	1076887696
 1268              		.cfi_endproc
 1269              	.LFE9:
 1270              		.size	AMux_1_CYAMUXSIDE_B_Set, .-AMux_1_CYAMUXSIDE_B_Set
 1271              		.section	.text.AMux_1_CYAMUXSIDE_B_Unset,"ax",%progbits
 1272              		.align	2
 1273              		.global	AMux_1_CYAMUXSIDE_B_Unset
 1274              		.code	16
 1275              		.thumb_func
 1276              		.type	AMux_1_CYAMUXSIDE_B_Unset, %function
 1277              	AMux_1_CYAMUXSIDE_B_Unset:
ARM GAS  C:\Users\cdrow\AppData\Local\Temp\ccCscaoD.s 			page 35


 1278              	.LFB10:
 643:Generated_Source\PSoC4/cyfitter_cfg.c **** 
 644:Generated_Source\PSoC4/cyfitter_cfg.c **** /*******************************************************************************
 645:Generated_Source\PSoC4/cyfitter_cfg.c **** * Function Name: AMux_1_CYAMUXSIDE_B_Unset
 646:Generated_Source\PSoC4/cyfitter_cfg.c **** ********************************************************************************
 647:Generated_Source\PSoC4/cyfitter_cfg.c **** * Summary:
 648:Generated_Source\PSoC4/cyfitter_cfg.c **** *  This function is used to clear a particular channel from being active on the
 649:Generated_Source\PSoC4/cyfitter_cfg.c **** *  AMux.
 650:Generated_Source\PSoC4/cyfitter_cfg.c **** *
 651:Generated_Source\PSoC4/cyfitter_cfg.c **** * Parameters:  
 652:Generated_Source\PSoC4/cyfitter_cfg.c **** *   channel - The mux channel input to mark inactive
 653:Generated_Source\PSoC4/cyfitter_cfg.c **** *
 654:Generated_Source\PSoC4/cyfitter_cfg.c **** * Return:
 655:Generated_Source\PSoC4/cyfitter_cfg.c **** *   void
 656:Generated_Source\PSoC4/cyfitter_cfg.c **** *
 657:Generated_Source\PSoC4/cyfitter_cfg.c **** *******************************************************************************/
 658:Generated_Source\PSoC4/cyfitter_cfg.c **** void AMux_1_CYAMUXSIDE_B_Unset(uint8 channel)
 659:Generated_Source\PSoC4/cyfitter_cfg.c **** {
 1279              		.loc 1 659 0
 1280              		.cfi_startproc
 1281              		@ args = 0, pretend = 0, frame = 0
 1282              		@ frame_needed = 0, uses_anonymous_args = 0
 1283              		@ link register save eliminated.
 1284              	.LVL16:
 660:Generated_Source\PSoC4/cyfitter_cfg.c **** 	switch (channel) {
 1285              		.loc 1 660 0
 1286 0000 2028     		cmp	r0, #32
 1287 0002 00D9     		bls	.LCB1081
 1288 0004 A8E0     		b	.L126	@long jump
 1289              	.LCB1081:
 1290 0006 8000     		lsls	r0, r0, #2
 1291              	.LVL17:
 1292 0008 544B     		ldr	r3, .L162
 1293 000a 1B58     		ldr	r3, [r3, r0]
 1294 000c 9F46     		mov	pc, r3
 1295              		.section	.rodata
 1296              		.align	2
 1297              	.L129:
 1298 018c 0E000000 		.word	.L128
 1299 0190 18000000 		.word	.L130
 1300 0194 22000000 		.word	.L131
 1301 0198 2C000000 		.word	.L132
 1302 019c 36000000 		.word	.L133
 1303 01a0 40000000 		.word	.L134
 1304 01a4 4A000000 		.word	.L135
 1305 01a8 54000000 		.word	.L136
 1306 01ac 5E000000 		.word	.L137
 1307 01b0 68000000 		.word	.L138
 1308 01b4 72000000 		.word	.L139
 1309 01b8 7C000000 		.word	.L140
 1310 01bc 86000000 		.word	.L141
 1311 01c0 90000000 		.word	.L142
 1312 01c4 9A000000 		.word	.L143
 1313 01c8 A2000000 		.word	.L144
 1314 01cc AC000000 		.word	.L145
 1315 01d0 B4000000 		.word	.L146
 1316 01d4 BE000000 		.word	.L147
ARM GAS  C:\Users\cdrow\AppData\Local\Temp\ccCscaoD.s 			page 36


 1317 01d8 C8000000 		.word	.L148
 1318 01dc D2000000 		.word	.L149
 1319 01e0 DC000000 		.word	.L150
 1320 01e4 E6000000 		.word	.L151
 1321 01e8 F0000000 		.word	.L152
 1322 01ec FA000000 		.word	.L153
 1323 01f0 04010000 		.word	.L154
 1324 01f4 0E010000 		.word	.L155
 1325 01f8 1E010000 		.word	.L156
 1326 01fc 28010000 		.word	.L157
 1327 0200 32010000 		.word	.L158
 1328 0204 3C010000 		.word	.L159
 1329 0208 46010000 		.word	.L160
 1330 020c 50010000 		.word	.L161
 1331              		.section	.text.AMux_1_CYAMUXSIDE_B_Unset
 1332              	.L128:
 661:Generated_Source\PSoC4/cyfitter_cfg.c **** 		case 0u:
 662:Generated_Source\PSoC4/cyfitter_cfg.c **** 			CY_SET_REG32((void CYXDATA *)CYREG_SAR_MUX_SWITCH_CLEAR0, (0x200u));
 1333              		.loc 1 662 0
 1334 000e 8022     		movs	r2, #128
 1335 0010 9200     		lsls	r2, r2, #2
 1336 0012 534B     		ldr	r3, .L162+4
 1337 0014 1A60     		str	r2, [r3]
 663:Generated_Source\PSoC4/cyfitter_cfg.c **** 			break;
 1338              		.loc 1 663 0
 1339 0016 9FE0     		b	.L126
 1340              	.L130:
 664:Generated_Source\PSoC4/cyfitter_cfg.c **** 		case 1u:
 665:Generated_Source\PSoC4/cyfitter_cfg.c **** 			CY_SET_REG32((void CYXDATA *)CYREG_SAR_MUX_SWITCH_CLEAR0, (0x2000u));
 1341              		.loc 1 665 0
 1342 0018 8022     		movs	r2, #128
 1343 001a 9201     		lsls	r2, r2, #6
 1344 001c 504B     		ldr	r3, .L162+4
 1345 001e 1A60     		str	r2, [r3]
 666:Generated_Source\PSoC4/cyfitter_cfg.c **** 			break;
 1346              		.loc 1 666 0
 1347 0020 9AE0     		b	.L126
 1348              	.L131:
 667:Generated_Source\PSoC4/cyfitter_cfg.c **** 		case 2u:
 668:Generated_Source\PSoC4/cyfitter_cfg.c **** 			CY_SET_REG32((void CYXDATA *)CYREG_SAR_MUX_SWITCH_CLEAR0, (0x400u));
 1349              		.loc 1 668 0
 1350 0022 8022     		movs	r2, #128
 1351 0024 D200     		lsls	r2, r2, #3
 1352 0026 4E4B     		ldr	r3, .L162+4
 1353 0028 1A60     		str	r2, [r3]
 669:Generated_Source\PSoC4/cyfitter_cfg.c **** 			break;
 1354              		.loc 1 669 0
 1355 002a 95E0     		b	.L126
 1356              	.L132:
 670:Generated_Source\PSoC4/cyfitter_cfg.c **** 		case 3u:
 671:Generated_Source\PSoC4/cyfitter_cfg.c **** 			CY_SET_REG32((void CYXDATA *)CYREG_SAR_MUX_SWITCH_CLEAR0, (0x2000u));
 1357              		.loc 1 671 0
 1358 002c 8022     		movs	r2, #128
 1359 002e 9201     		lsls	r2, r2, #6
 1360 0030 4B4B     		ldr	r3, .L162+4
 1361 0032 1A60     		str	r2, [r3]
 672:Generated_Source\PSoC4/cyfitter_cfg.c **** 			break;
ARM GAS  C:\Users\cdrow\AppData\Local\Temp\ccCscaoD.s 			page 37


 1362              		.loc 1 672 0
 1363 0034 90E0     		b	.L126
 1364              	.L133:
 673:Generated_Source\PSoC4/cyfitter_cfg.c **** 		case 4u:
 674:Generated_Source\PSoC4/cyfitter_cfg.c **** 			CY_SET_REG32((void CYXDATA *)CYREG_SAR_MUX_SWITCH_CLEAR0, (0x800u));
 1365              		.loc 1 674 0
 1366 0036 8022     		movs	r2, #128
 1367 0038 1201     		lsls	r2, r2, #4
 1368 003a 494B     		ldr	r3, .L162+4
 1369 003c 1A60     		str	r2, [r3]
 675:Generated_Source\PSoC4/cyfitter_cfg.c **** 			break;
 1370              		.loc 1 675 0
 1371 003e 8BE0     		b	.L126
 1372              	.L134:
 676:Generated_Source\PSoC4/cyfitter_cfg.c **** 		case 5u:
 677:Generated_Source\PSoC4/cyfitter_cfg.c **** 			CY_SET_REG32((void CYXDATA *)CYREG_SAR_MUX_SWITCH_CLEAR0, (0x2000u));
 1373              		.loc 1 677 0
 1374 0040 8022     		movs	r2, #128
 1375 0042 9201     		lsls	r2, r2, #6
 1376 0044 464B     		ldr	r3, .L162+4
 1377 0046 1A60     		str	r2, [r3]
 678:Generated_Source\PSoC4/cyfitter_cfg.c **** 			break;
 1378              		.loc 1 678 0
 1379 0048 86E0     		b	.L126
 1380              	.L135:
 679:Generated_Source\PSoC4/cyfitter_cfg.c **** 		case 6u:
 680:Generated_Source\PSoC4/cyfitter_cfg.c **** 			CY_SET_REG32((void CYXDATA *)CYREG_SAR_MUX_SWITCH_CLEAR0, (0x1000u));
 1381              		.loc 1 680 0
 1382 004a 8022     		movs	r2, #128
 1383 004c 5201     		lsls	r2, r2, #5
 1384 004e 444B     		ldr	r3, .L162+4
 1385 0050 1A60     		str	r2, [r3]
 681:Generated_Source\PSoC4/cyfitter_cfg.c **** 			break;
 1386              		.loc 1 681 0
 1387 0052 81E0     		b	.L126
 1388              	.L136:
 682:Generated_Source\PSoC4/cyfitter_cfg.c **** 		case 7u:
 683:Generated_Source\PSoC4/cyfitter_cfg.c **** 			CY_SET_REG32((void CYXDATA *)CYREG_SAR_MUX_SWITCH_CLEAR0, (0x2000u));
 1389              		.loc 1 683 0
 1390 0054 8022     		movs	r2, #128
 1391 0056 9201     		lsls	r2, r2, #6
 1392 0058 414B     		ldr	r3, .L162+4
 1393 005a 1A60     		str	r2, [r3]
 684:Generated_Source\PSoC4/cyfitter_cfg.c **** 			break;
 1394              		.loc 1 684 0
 1395 005c 7CE0     		b	.L126
 1396              	.L137:
 685:Generated_Source\PSoC4/cyfitter_cfg.c **** 		case 8u:
 686:Generated_Source\PSoC4/cyfitter_cfg.c **** 			CY_SET_REG32((void CYXDATA *)CYREG_SAR_MUX_SWITCH_CLEAR0, (0x100u));
 1397              		.loc 1 686 0
 1398 005e 8022     		movs	r2, #128
 1399 0060 5200     		lsls	r2, r2, #1
 1400 0062 3F4B     		ldr	r3, .L162+4
 1401 0064 1A60     		str	r2, [r3]
 687:Generated_Source\PSoC4/cyfitter_cfg.c **** 			break;
 1402              		.loc 1 687 0
 1403 0066 77E0     		b	.L126
ARM GAS  C:\Users\cdrow\AppData\Local\Temp\ccCscaoD.s 			page 38


 1404              	.L138:
 688:Generated_Source\PSoC4/cyfitter_cfg.c **** 		case 9u:
 689:Generated_Source\PSoC4/cyfitter_cfg.c **** 			CY_SET_REG32((void CYXDATA *)CYREG_SAR_MUX_SWITCH_CLEAR0, (0x2000u));
 1405              		.loc 1 689 0
 1406 0068 8022     		movs	r2, #128
 1407 006a 9201     		lsls	r2, r2, #6
 1408 006c 3C4B     		ldr	r3, .L162+4
 1409 006e 1A60     		str	r2, [r3]
 690:Generated_Source\PSoC4/cyfitter_cfg.c **** 			break;
 1410              		.loc 1 690 0
 1411 0070 72E0     		b	.L126
 1412              	.L139:
 691:Generated_Source\PSoC4/cyfitter_cfg.c **** 		case 10u:
 692:Generated_Source\PSoC4/cyfitter_cfg.c **** 			CY_SET_REG32((void CYXDATA *)CYREG_CTB1_CTBBUS_SW_CLEAR, (0x80000u));
 1413              		.loc 1 692 0
 1414 0072 8022     		movs	r2, #128
 1415 0074 1203     		lsls	r2, r2, #12
 1416 0076 3B4B     		ldr	r3, .L162+8
 1417 0078 1A60     		str	r2, [r3]
 693:Generated_Source\PSoC4/cyfitter_cfg.c **** 			break;
 1418              		.loc 1 693 0
 1419 007a 6DE0     		b	.L126
 1420              	.L140:
 694:Generated_Source\PSoC4/cyfitter_cfg.c **** 		case 11u:
 695:Generated_Source\PSoC4/cyfitter_cfg.c **** 			CY_SET_REG32((void CYXDATA *)CYREG_SAR_MUX_SWITCH_CLEAR0, (0x2000u));
 1421              		.loc 1 695 0
 1422 007c 8022     		movs	r2, #128
 1423 007e 9201     		lsls	r2, r2, #6
 1424 0080 374B     		ldr	r3, .L162+4
 1425 0082 1A60     		str	r2, [r3]
 696:Generated_Source\PSoC4/cyfitter_cfg.c **** 			break;
 1426              		.loc 1 696 0
 1427 0084 68E0     		b	.L126
 1428              	.L141:
 697:Generated_Source\PSoC4/cyfitter_cfg.c **** 		case 12u:
 698:Generated_Source\PSoC4/cyfitter_cfg.c **** 			CY_SET_REG32((void CYXDATA *)CYREG_CTB1_CTBBUS_SW_CLEAR, (0x8000u));
 1429              		.loc 1 698 0
 1430 0086 8022     		movs	r2, #128
 1431 0088 1202     		lsls	r2, r2, #8
 1432 008a 364B     		ldr	r3, .L162+8
 1433 008c 1A60     		str	r2, [r3]
 699:Generated_Source\PSoC4/cyfitter_cfg.c **** 			break;
 1434              		.loc 1 699 0
 1435 008e 63E0     		b	.L126
 1436              	.L142:
 700:Generated_Source\PSoC4/cyfitter_cfg.c **** 		case 13u:
 701:Generated_Source\PSoC4/cyfitter_cfg.c **** 			CY_SET_REG32((void CYXDATA *)CYREG_SAR_MUX_SWITCH_CLEAR0, (0x2000u));
 1437              		.loc 1 701 0
 1438 0090 8022     		movs	r2, #128
 1439 0092 9201     		lsls	r2, r2, #6
 1440 0094 324B     		ldr	r3, .L162+4
 1441 0096 1A60     		str	r2, [r3]
 702:Generated_Source\PSoC4/cyfitter_cfg.c **** 			break;
 1442              		.loc 1 702 0
 1443 0098 5EE0     		b	.L126
 1444              	.L143:
 703:Generated_Source\PSoC4/cyfitter_cfg.c **** 		case 14u:
ARM GAS  C:\Users\cdrow\AppData\Local\Temp\ccCscaoD.s 			page 39


 704:Generated_Source\PSoC4/cyfitter_cfg.c **** 			CY_SET_REG32((void CYXDATA *)CYREG_CTB1_OA1_SW_CLEAR, (0x02u));
 1445              		.loc 1 704 0
 1446 009a 0222     		movs	r2, #2
 1447 009c 324B     		ldr	r3, .L162+12
 1448 009e 1A60     		str	r2, [r3]
 705:Generated_Source\PSoC4/cyfitter_cfg.c **** 			break;
 1449              		.loc 1 705 0
 1450 00a0 5AE0     		b	.L126
 1451              	.L144:
 706:Generated_Source\PSoC4/cyfitter_cfg.c **** 		case 15u:
 707:Generated_Source\PSoC4/cyfitter_cfg.c **** 			CY_SET_REG32((void CYXDATA *)CYREG_SAR_MUX_SWITCH_CLEAR0, (0x2000u));
 1452              		.loc 1 707 0
 1453 00a2 8022     		movs	r2, #128
 1454 00a4 9201     		lsls	r2, r2, #6
 1455 00a6 2E4B     		ldr	r3, .L162+4
 1456 00a8 1A60     		str	r2, [r3]
 708:Generated_Source\PSoC4/cyfitter_cfg.c **** 			break;
 1457              		.loc 1 708 0
 1458 00aa 55E0     		b	.L126
 1459              	.L145:
 709:Generated_Source\PSoC4/cyfitter_cfg.c **** 		case 16u:
 710:Generated_Source\PSoC4/cyfitter_cfg.c **** 			CY_SET_REG32((void CYXDATA *)CYREG_CTB1_OA1_SW_CLEAR, (0x04u));
 1460              		.loc 1 710 0
 1461 00ac 0422     		movs	r2, #4
 1462 00ae 2E4B     		ldr	r3, .L162+12
 1463 00b0 1A60     		str	r2, [r3]
 711:Generated_Source\PSoC4/cyfitter_cfg.c **** 			break;
 1464              		.loc 1 711 0
 1465 00b2 51E0     		b	.L126
 1466              	.L146:
 712:Generated_Source\PSoC4/cyfitter_cfg.c **** 		case 17u:
 713:Generated_Source\PSoC4/cyfitter_cfg.c **** 			CY_SET_REG32((void CYXDATA *)CYREG_SAR_MUX_SWITCH_CLEAR0, (0x2000u));
 1467              		.loc 1 713 0
 1468 00b4 8022     		movs	r2, #128
 1469 00b6 9201     		lsls	r2, r2, #6
 1470 00b8 294B     		ldr	r3, .L162+4
 1471 00ba 1A60     		str	r2, [r3]
 714:Generated_Source\PSoC4/cyfitter_cfg.c **** 			break;
 1472              		.loc 1 714 0
 1473 00bc 4CE0     		b	.L126
 1474              	.L147:
 715:Generated_Source\PSoC4/cyfitter_cfg.c **** 		case 18u:
 716:Generated_Source\PSoC4/cyfitter_cfg.c **** 			CY_SET_REG32((void CYXDATA *)CYREG_CTB1_CTBBUS_SW_CLEAR, (0x20000u));
 1475              		.loc 1 716 0
 1476 00be 8022     		movs	r2, #128
 1477 00c0 9202     		lsls	r2, r2, #10
 1478 00c2 284B     		ldr	r3, .L162+8
 1479 00c4 1A60     		str	r2, [r3]
 717:Generated_Source\PSoC4/cyfitter_cfg.c **** 			break;
 1480              		.loc 1 717 0
 1481 00c6 47E0     		b	.L126
 1482              	.L148:
 718:Generated_Source\PSoC4/cyfitter_cfg.c **** 		case 19u:
 719:Generated_Source\PSoC4/cyfitter_cfg.c **** 			CY_SET_REG32((void CYXDATA *)CYREG_SAR_MUX_SWITCH_CLEAR0, (0x2000u));
 1483              		.loc 1 719 0
 1484 00c8 8022     		movs	r2, #128
 1485 00ca 9201     		lsls	r2, r2, #6
ARM GAS  C:\Users\cdrow\AppData\Local\Temp\ccCscaoD.s 			page 40


 1486 00cc 244B     		ldr	r3, .L162+4
 1487 00ce 1A60     		str	r2, [r3]
 720:Generated_Source\PSoC4/cyfitter_cfg.c **** 			break;
 1488              		.loc 1 720 0
 1489 00d0 42E0     		b	.L126
 1490              	.L149:
 721:Generated_Source\PSoC4/cyfitter_cfg.c **** 		case 20u:
 722:Generated_Source\PSoC4/cyfitter_cfg.c **** 			CY_SET_REG32((void CYXDATA *)CYREG_CTB1_CTBBUS_SW_CLEAR, (0x2000u));
 1491              		.loc 1 722 0
 1492 00d2 8022     		movs	r2, #128
 1493 00d4 9201     		lsls	r2, r2, #6
 1494 00d6 234B     		ldr	r3, .L162+8
 1495 00d8 1A60     		str	r2, [r3]
 723:Generated_Source\PSoC4/cyfitter_cfg.c **** 			break;
 1496              		.loc 1 723 0
 1497 00da 3DE0     		b	.L126
 1498              	.L150:
 724:Generated_Source\PSoC4/cyfitter_cfg.c **** 		case 21u:
 725:Generated_Source\PSoC4/cyfitter_cfg.c **** 			CY_SET_REG32((void CYXDATA *)CYREG_SAR_MUX_SWITCH_CLEAR0, (0x2000u));
 1499              		.loc 1 725 0
 1500 00dc 8022     		movs	r2, #128
 1501 00de 9201     		lsls	r2, r2, #6
 1502 00e0 1F4B     		ldr	r3, .L162+4
 1503 00e2 1A60     		str	r2, [r3]
 726:Generated_Source\PSoC4/cyfitter_cfg.c **** 			break;
 1504              		.loc 1 726 0
 1505 00e4 38E0     		b	.L126
 1506              	.L151:
 727:Generated_Source\PSoC4/cyfitter_cfg.c **** 		case 22u:
 728:Generated_Source\PSoC4/cyfitter_cfg.c **** 			CY_SET_REG32((void CYXDATA *)CYREG_CTB1_CTBBUS_SW_CLEAR, (0x10000u));
 1507              		.loc 1 728 0
 1508 00e6 8022     		movs	r2, #128
 1509 00e8 5202     		lsls	r2, r2, #9
 1510 00ea 1E4B     		ldr	r3, .L162+8
 1511 00ec 1A60     		str	r2, [r3]
 729:Generated_Source\PSoC4/cyfitter_cfg.c **** 			break;
 1512              		.loc 1 729 0
 1513 00ee 33E0     		b	.L126
 1514              	.L152:
 730:Generated_Source\PSoC4/cyfitter_cfg.c **** 		case 23u:
 731:Generated_Source\PSoC4/cyfitter_cfg.c **** 			CY_SET_REG32((void CYXDATA *)CYREG_SAR_MUX_SWITCH_CLEAR0, (0x2000u));
 1515              		.loc 1 731 0
 1516 00f0 8022     		movs	r2, #128
 1517 00f2 9201     		lsls	r2, r2, #6
 1518 00f4 1A4B     		ldr	r3, .L162+4
 1519 00f6 1A60     		str	r2, [r3]
 732:Generated_Source\PSoC4/cyfitter_cfg.c **** 			break;
 1520              		.loc 1 732 0
 1521 00f8 2EE0     		b	.L126
 1522              	.L153:
 733:Generated_Source\PSoC4/cyfitter_cfg.c **** 		case 24u:
 734:Generated_Source\PSoC4/cyfitter_cfg.c **** 			CY_SET_REG32((void CYXDATA *)CYREG_CTB1_CTBBUS_SW_CLEAR, (0x1000u));
 1523              		.loc 1 734 0
 1524 00fa 8022     		movs	r2, #128
 1525 00fc 5201     		lsls	r2, r2, #5
 1526 00fe 194B     		ldr	r3, .L162+8
 1527 0100 1A60     		str	r2, [r3]
ARM GAS  C:\Users\cdrow\AppData\Local\Temp\ccCscaoD.s 			page 41


 735:Generated_Source\PSoC4/cyfitter_cfg.c **** 			break;
 1528              		.loc 1 735 0
 1529 0102 29E0     		b	.L126
 1530              	.L154:
 736:Generated_Source\PSoC4/cyfitter_cfg.c **** 		case 25u:
 737:Generated_Source\PSoC4/cyfitter_cfg.c **** 			CY_SET_REG32((void CYXDATA *)CYREG_SAR_MUX_SWITCH_CLEAR0, (0x2000u));
 1531              		.loc 1 737 0
 1532 0104 8022     		movs	r2, #128
 1533 0106 9201     		lsls	r2, r2, #6
 1534 0108 154B     		ldr	r3, .L162+4
 1535 010a 1A60     		str	r2, [r3]
 738:Generated_Source\PSoC4/cyfitter_cfg.c **** 			break;
 1536              		.loc 1 738 0
 1537 010c 24E0     		b	.L126
 1538              	.L155:
 739:Generated_Source\PSoC4/cyfitter_cfg.c **** 		case 26u:
 740:Generated_Source\PSoC4/cyfitter_cfg.c **** 			CY_SET_REG32((void CYXDATA *)CYREG_CTB0_CTBBUS_SW_CLEAR, (0x4000u));
 1539              		.loc 1 740 0
 1540 010e 174B     		ldr	r3, .L162+16
 1541 0110 8022     		movs	r2, #128
 1542 0112 D201     		lsls	r2, r2, #7
 1543 0114 1A60     		str	r2, [r3]
 741:Generated_Source\PSoC4/cyfitter_cfg.c **** 			CY_SET_REG32((void CYXDATA *)CYREG_CTB0_CTBBUS_SW_CLEAR, (0x400000u));
 1544              		.loc 1 741 0
 1545 0116 8022     		movs	r2, #128
 1546 0118 D203     		lsls	r2, r2, #15
 1547 011a 1A60     		str	r2, [r3]
 742:Generated_Source\PSoC4/cyfitter_cfg.c **** 			break;
 1548              		.loc 1 742 0
 1549 011c 1CE0     		b	.L126
 1550              	.L156:
 743:Generated_Source\PSoC4/cyfitter_cfg.c **** 		case 27u:
 744:Generated_Source\PSoC4/cyfitter_cfg.c **** 			CY_SET_REG32((void CYXDATA *)CYREG_SAR_MUX_SWITCH_CLEAR0, (0x2000u));
 1551              		.loc 1 744 0
 1552 011e 8022     		movs	r2, #128
 1553 0120 9201     		lsls	r2, r2, #6
 1554 0122 0F4B     		ldr	r3, .L162+4
 1555 0124 1A60     		str	r2, [r3]
 745:Generated_Source\PSoC4/cyfitter_cfg.c **** 			break;
 1556              		.loc 1 745 0
 1557 0126 17E0     		b	.L126
 1558              	.L157:
 746:Generated_Source\PSoC4/cyfitter_cfg.c **** 		case 28u:
 747:Generated_Source\PSoC4/cyfitter_cfg.c **** 			CY_SET_REG32((void CYXDATA *)CYREG_CTB0_CTBBUS_SW_CLEAR, (0x20000u));
 1559              		.loc 1 747 0
 1560 0128 8022     		movs	r2, #128
 1561 012a 9202     		lsls	r2, r2, #10
 1562 012c 0F4B     		ldr	r3, .L162+16
 1563 012e 1A60     		str	r2, [r3]
 748:Generated_Source\PSoC4/cyfitter_cfg.c **** 			break;
 1564              		.loc 1 748 0
 1565 0130 12E0     		b	.L126
 1566              	.L158:
 749:Generated_Source\PSoC4/cyfitter_cfg.c **** 		case 29u:
 750:Generated_Source\PSoC4/cyfitter_cfg.c **** 			CY_SET_REG32((void CYXDATA *)CYREG_SAR_MUX_SWITCH_CLEAR0, (0x2000u));
 1567              		.loc 1 750 0
 1568 0132 8022     		movs	r2, #128
ARM GAS  C:\Users\cdrow\AppData\Local\Temp\ccCscaoD.s 			page 42


 1569 0134 9201     		lsls	r2, r2, #6
 1570 0136 0A4B     		ldr	r3, .L162+4
 1571 0138 1A60     		str	r2, [r3]
 751:Generated_Source\PSoC4/cyfitter_cfg.c **** 			break;
 1572              		.loc 1 751 0
 1573 013a 0DE0     		b	.L126
 1574              	.L159:
 752:Generated_Source\PSoC4/cyfitter_cfg.c **** 		case 30u:
 753:Generated_Source\PSoC4/cyfitter_cfg.c **** 			CY_SET_REG32((void CYXDATA *)CYREG_CTB0_CTBBUS_SW_CLEAR, (0x10000u));
 1575              		.loc 1 753 0
 1576 013c 8022     		movs	r2, #128
 1577 013e 5202     		lsls	r2, r2, #9
 1578 0140 0A4B     		ldr	r3, .L162+16
 1579 0142 1A60     		str	r2, [r3]
 754:Generated_Source\PSoC4/cyfitter_cfg.c **** 			break;
 1580              		.loc 1 754 0
 1581 0144 08E0     		b	.L126
 1582              	.L160:
 755:Generated_Source\PSoC4/cyfitter_cfg.c **** 		case 31u:
 756:Generated_Source\PSoC4/cyfitter_cfg.c **** 			CY_SET_REG32((void CYXDATA *)CYREG_SAR_MUX_SWITCH_CLEAR0, (0x2000u));
 1583              		.loc 1 756 0
 1584 0146 8022     		movs	r2, #128
 1585 0148 9201     		lsls	r2, r2, #6
 1586 014a 054B     		ldr	r3, .L162+4
 1587 014c 1A60     		str	r2, [r3]
 757:Generated_Source\PSoC4/cyfitter_cfg.c **** 			break;
 1588              		.loc 1 757 0
 1589 014e 03E0     		b	.L126
 1590              	.L161:
 758:Generated_Source\PSoC4/cyfitter_cfg.c **** 		case 32u:
 759:Generated_Source\PSoC4/cyfitter_cfg.c **** 			CY_SET_REG32((void CYXDATA *)CYREG_CTB0_CTBBUS_SW_CLEAR, (0x10000u));
 1591              		.loc 1 759 0
 1592 0150 8022     		movs	r2, #128
 1593 0152 5202     		lsls	r2, r2, #9
 1594 0154 054B     		ldr	r3, .L162+16
 1595 0156 1A60     		str	r2, [r3]
 1596              	.L126:
 760:Generated_Source\PSoC4/cyfitter_cfg.c **** 			break;
 761:Generated_Source\PSoC4/cyfitter_cfg.c **** 		default:
 762:Generated_Source\PSoC4/cyfitter_cfg.c **** 			break;
 763:Generated_Source\PSoC4/cyfitter_cfg.c **** 	}
 764:Generated_Source\PSoC4/cyfitter_cfg.c **** }
 1597              		.loc 1 764 0
 1598              		@ sp needed
 1599 0158 7047     		bx	lr
 1600              	.L163:
 1601 015a C046     		.align	2
 1602              	.L162:
 1603 015c 8C010000 		.word	.L129
 1604 0160 04033A40 		.word	1077543684
 1605 0164 94003140 		.word	1076953236
 1606 0168 8C003140 		.word	1076953228
 1607 016c 94003040 		.word	1076887700
 1608              		.cfi_endproc
 1609              	.LFE10:
 1610              		.size	AMux_1_CYAMUXSIDE_B_Unset, .-AMux_1_CYAMUXSIDE_B_Unset
 1611              		.section	.psocinit
ARM GAS  C:\Users\cdrow\AppData\Local\Temp\ccCscaoD.s 			page 43


 1612              		.align	2
 1613              		.global	cyfitter_cfg
 1614              		.code	16
 1615              		.thumb_func
 1616              		.type	cyfitter_cfg, %function
 1617              	cyfitter_cfg:
 1618              	.LFB11:
 765:Generated_Source\PSoC4/cyfitter_cfg.c **** 
 766:Generated_Source\PSoC4/cyfitter_cfg.c **** 
 767:Generated_Source\PSoC4/cyfitter_cfg.c **** 
 768:Generated_Source\PSoC4/cyfitter_cfg.c **** /*******************************************************************************
 769:Generated_Source\PSoC4/cyfitter_cfg.c **** * Function Name: cyfitter_cfg
 770:Generated_Source\PSoC4/cyfitter_cfg.c **** ********************************************************************************
 771:Generated_Source\PSoC4/cyfitter_cfg.c **** * Summary:
 772:Generated_Source\PSoC4/cyfitter_cfg.c **** *  This function is called by the start-up code for the selected device. It
 773:Generated_Source\PSoC4/cyfitter_cfg.c **** *  performs all of the necessary device configuration based on the design
 774:Generated_Source\PSoC4/cyfitter_cfg.c **** *  settings.  This includes settings from the Design Wide Resources (DWR) such
 775:Generated_Source\PSoC4/cyfitter_cfg.c **** *  as Clocks and Pins as well as any component configuration that is necessary.
 776:Generated_Source\PSoC4/cyfitter_cfg.c **** *
 777:Generated_Source\PSoC4/cyfitter_cfg.c **** * Parameters:
 778:Generated_Source\PSoC4/cyfitter_cfg.c **** *   void
 779:Generated_Source\PSoC4/cyfitter_cfg.c **** *
 780:Generated_Source\PSoC4/cyfitter_cfg.c **** * Return:
 781:Generated_Source\PSoC4/cyfitter_cfg.c **** *   void
 782:Generated_Source\PSoC4/cyfitter_cfg.c **** *
 783:Generated_Source\PSoC4/cyfitter_cfg.c **** *******************************************************************************/
 784:Generated_Source\PSoC4/cyfitter_cfg.c **** CY_CFG_SECTION
 785:Generated_Source\PSoC4/cyfitter_cfg.c **** void cyfitter_cfg(void)
 786:Generated_Source\PSoC4/cyfitter_cfg.c **** {
 1619              		.loc 1 786 0
 1620              		.cfi_startproc
 1621              		@ args = 0, pretend = 0, frame = 0
 1622              		@ frame_needed = 0, uses_anonymous_args = 0
 1623 00b4 10B5     		push	{r4, lr}
 1624              		.cfi_def_cfa_offset 8
 1625              		.cfi_offset 4, -8
 1626              		.cfi_offset 14, -4
 787:Generated_Source\PSoC4/cyfitter_cfg.c **** 	/* Disable interrupts by default. Let user enable if/when they want. */
 788:Generated_Source\PSoC4/cyfitter_cfg.c **** 	CyGlobalIntDisable;
 1627              		.loc 1 788 0
 1628              		.syntax divided
 1629              	@ 788 "Generated_Source\PSoC4\cyfitter_cfg.c" 1
 1630 00b6 72B6     		CPSID   i
 1631              	@ 0 "" 2
 789:Generated_Source\PSoC4/cyfitter_cfg.c **** 
 790:Generated_Source\PSoC4/cyfitter_cfg.c **** 	{
 791:Generated_Source\PSoC4/cyfitter_cfg.c **** 		/* HSIOM Starting address: CYDEV_HSIOM_BASE */
 792:Generated_Source\PSoC4/cyfitter_cfg.c **** 		CY_SET_REG32((void *)(CYDEV_HSIOM_BASE), 0x009900EEu);
 1632              		.loc 1 792 0
 1633              		.thumb
 1634              		.syntax unified
 1635 00b8 134A     		ldr	r2, .L165
 1636 00ba 144B     		ldr	r3, .L165+4
 1637 00bc 1A60     		str	r2, [r3]
 793:Generated_Source\PSoC4/cyfitter_cfg.c **** 		CY_SET_REG32((void *)(CYREG_HSIOM_PORT_SEL3), 0xEE000000u);
 1638              		.loc 1 793 0
 1639 00be EE22     		movs	r2, #238
ARM GAS  C:\Users\cdrow\AppData\Local\Temp\ccCscaoD.s 			page 44


 1640 00c0 1206     		lsls	r2, r2, #24
 1641 00c2 134B     		ldr	r3, .L165+8
 1642 00c4 1A60     		str	r2, [r3]
 794:Generated_Source\PSoC4/cyfitter_cfg.c **** 
 795:Generated_Source\PSoC4/cyfitter_cfg.c **** 		/* PASS_SAR_TRIG_SEL Starting address: CYDEV_PASS_SAR_TRIG_SEL */
 796:Generated_Source\PSoC4/cyfitter_cfg.c **** 		CY_SET_REG32((void *)(CYREG_PASS_SAR_TRIG_SEL), 0x00000000u);
 1643              		.loc 1 796 0
 1644 00c6 0022     		movs	r2, #0
 1645 00c8 124B     		ldr	r3, .L165+12
 1646 00ca 1A60     		str	r2, [r3]
 797:Generated_Source\PSoC4/cyfitter_cfg.c **** 
 798:Generated_Source\PSoC4/cyfitter_cfg.c **** 	}
 799:Generated_Source\PSoC4/cyfitter_cfg.c **** 
 800:Generated_Source\PSoC4/cyfitter_cfg.c **** 	/* Perform second pass device configuration. These items must be configured in specific order afte
 801:Generated_Source\PSoC4/cyfitter_cfg.c **** 	/* IOPINS0_0 Starting address: CYDEV_GPIO_PRT0_BASE */
 802:Generated_Source\PSoC4/cyfitter_cfg.c **** 	CY_SET_REG32((void *)(CYDEV_GPIO_PRT0_BASE), 0x00000020u);
 1647              		.loc 1 802 0
 1648 00cc 2032     		adds	r2, r2, #32
 1649 00ce 124B     		ldr	r3, .L165+16
 1650 00d0 1A60     		str	r2, [r3]
 803:Generated_Source\PSoC4/cyfitter_cfg.c **** 	CY_SET_REG32((void *)(CYREG_GPIO_PRT0_PC), 0x002711B6u);
 1651              		.loc 1 803 0
 1652 00d2 124A     		ldr	r2, .L165+20
 1653 00d4 124B     		ldr	r3, .L165+24
 1654 00d6 1A60     		str	r2, [r3]
 804:Generated_Source\PSoC4/cyfitter_cfg.c **** 
 805:Generated_Source\PSoC4/cyfitter_cfg.c **** 	/* IOPINS0_1 Starting address: CYDEV_GPIO_PRT1_BASE */
 806:Generated_Source\PSoC4/cyfitter_cfg.c **** 	CY_SET_REG32((void *)(CYDEV_GPIO_PRT1_BASE), 0x000000FFu);
 1655              		.loc 1 806 0
 1656 00d8 FF23     		movs	r3, #255
 1657 00da 124A     		ldr	r2, .L165+28
 1658 00dc 1360     		str	r3, [r2]
 807:Generated_Source\PSoC4/cyfitter_cfg.c **** 	CY_SET_REG32((void *)(CYREG_GPIO_PRT1_PC2), 0x000000FFu);
 1659              		.loc 1 807 0
 1660 00de 124A     		ldr	r2, .L165+32
 1661 00e0 1360     		str	r3, [r2]
 808:Generated_Source\PSoC4/cyfitter_cfg.c **** 
 809:Generated_Source\PSoC4/cyfitter_cfg.c **** 	/* IOPINS0_2 Starting address: CYDEV_GPIO_PRT2_BASE */
 810:Generated_Source\PSoC4/cyfitter_cfg.c **** 	CY_SET_REG32((void *)(CYDEV_GPIO_PRT2_BASE), 0x0000009Eu);
 1662              		.loc 1 810 0
 1663 00e2 9E22     		movs	r2, #158
 1664 00e4 1149     		ldr	r1, .L165+36
 1665 00e6 0A60     		str	r2, [r1]
 811:Generated_Source\PSoC4/cyfitter_cfg.c **** 	CY_SET_REG32((void *)(CYREG_GPIO_PRT2_PC2), 0x0000009Eu);
 1666              		.loc 1 811 0
 1667 00e8 1149     		ldr	r1, .L165+40
 1668 00ea 0A60     		str	r2, [r1]
 812:Generated_Source\PSoC4/cyfitter_cfg.c **** 
 813:Generated_Source\PSoC4/cyfitter_cfg.c **** 	/* IOPINS0_3 Starting address: CYDEV_GPIO_PRT3_BASE */
 814:Generated_Source\PSoC4/cyfitter_cfg.c **** 	CY_SET_REG32((void *)(CYDEV_GPIO_PRT3_BASE), 0x000000FFu);
 1669              		.loc 1 814 0
 1670 00ec 114A     		ldr	r2, .L165+44
 1671 00ee 1360     		str	r3, [r2]
 815:Generated_Source\PSoC4/cyfitter_cfg.c **** 	CY_SET_REG32((void *)(CYREG_GPIO_PRT3_PC), 0x00900000u);
 1672              		.loc 1 815 0
 1673 00f0 9022     		movs	r2, #144
 1674 00f2 1204     		lsls	r2, r2, #16
ARM GAS  C:\Users\cdrow\AppData\Local\Temp\ccCscaoD.s 			page 45


 1675 00f4 104B     		ldr	r3, .L165+48
 1676 00f6 1A60     		str	r2, [r3]
 816:Generated_Source\PSoC4/cyfitter_cfg.c **** 	CY_SET_REG32((void *)(CYREG_GPIO_PRT3_PC2), 0x0000003Fu);
 1677              		.loc 1 816 0
 1678 00f8 3F22     		movs	r2, #63
 1679 00fa 104B     		ldr	r3, .L165+52
 1680 00fc 1A60     		str	r2, [r3]
 817:Generated_Source\PSoC4/cyfitter_cfg.c **** 
 818:Generated_Source\PSoC4/cyfitter_cfg.c **** 
 819:Generated_Source\PSoC4/cyfitter_cfg.c **** 	/* Setup clocks based on selections from Clock DWR */
 820:Generated_Source\PSoC4/cyfitter_cfg.c **** 	ClockSetup();
 1681              		.loc 1 820 0
 1682 00fe FFF77FFF 		bl	ClockSetup
 1683              	.LVL18:
 821:Generated_Source\PSoC4/cyfitter_cfg.c **** 
 822:Generated_Source\PSoC4/cyfitter_cfg.c **** 	/* Perform basic analog initialization to defaults */
 823:Generated_Source\PSoC4/cyfitter_cfg.c **** 	AnalogSetDefault();
 1684              		.loc 1 823 0
 1685 0102 FFF7FEFF 		bl	AnalogSetDefault
 1686              	.LVL19:
 824:Generated_Source\PSoC4/cyfitter_cfg.c **** 
 825:Generated_Source\PSoC4/cyfitter_cfg.c **** }
 1687              		.loc 1 825 0
 1688              		@ sp needed
 1689 0106 10BD     		pop	{r4, pc}
 1690              	.L166:
 1691              		.align	2
 1692              	.L165:
 1693 0108 EE009900 		.word	10027246
 1694 010c 00000240 		.word	1073872896
 1695 0110 00030240 		.word	1073873664
 1696 0114 04013F40 		.word	1077870852
 1697 0118 00000440 		.word	1074003968
 1698 011c B6112700 		.word	2560438
 1699 0120 08000440 		.word	1074003976
 1700 0124 00010440 		.word	1074004224
 1701 0128 18010440 		.word	1074004248
 1702 012c 00020440 		.word	1074004480
 1703 0130 18020440 		.word	1074004504
 1704 0134 00030440 		.word	1074004736
 1705 0138 08030440 		.word	1074004744
 1706 013c 18030440 		.word	1074004760
 1707              		.cfi_endproc
 1708              	.LFE11:
 1709              		.size	cyfitter_cfg, .-cyfitter_cfg
 1710              		.text
 1711              	.Letext0:
 1712              		.file 2 "Generated_Source\\PSoC4\\cytypes.h"
 1713              		.file 3 "Generated_Source\\PSoC4\\CyLib.h"
 1714              		.file 4 "Generated_Source\\PSoC4\\CyLFClk.h"