ARM GAS  C:\Users\samue\AppData\Local\Temp\ccGYoRTw.s 			page 1


   1              		.syntax unified
   2              		.cpu cortex-m0plus
   3              		.fpu softvfp
   4              		.eabi_attribute 20, 1
   5              		.eabi_attribute 21, 1
   6              		.eabi_attribute 23, 3
   7              		.eabi_attribute 24, 1
   8              		.eabi_attribute 25, 1
   9              		.eabi_attribute 26, 1
  10              		.eabi_attribute 30, 1
  11              		.eabi_attribute 34, 0
  12              		.eabi_attribute 18, 4
  13              		.thumb
  14              		.syntax unified
  15              		.file	"main.c"
  16              		.text
  17              	.Ltext0:
  18              		.cfi_sections	.debug_frame
  19              		.section	.text.FilterSignal,"ax",%progbits
  20              		.align	2
  21              		.global	FilterSignal
  22              		.code	16
  23              		.thumb_func
  24              		.type	FilterSignal, %function
  25              	FilterSignal:
  26              	.LFB34:
  27              		.file 1 "main.c"
   1:main.c        **** /* ========================================
   2:main.c        ****  *
   3:main.c        ****  * Christian Gonzalez, UC Davis, 2020
   4:main.c        ****  * All Rights Reserved
   5:main.c        ****  * UNPUBLISHED, LICENSED SOFTWARE.
   6:main.c        ****  * Whoops
   7:main.c        ****  *
   8:main.c        ****  * CONFIDENTIAL AND PROPRIETARY INFORMATION
   9:main.c        ****  * WHICH IS THE PROPERTY OF your company.
  10:main.c        ****  *
  11:main.c        ****  * ========================================
  12:main.c        **** */
  13:main.c        **** #include <project.h>
  14:main.c        **** #include <stdio.h>
  15:main.c        **** 
  16:main.c        **** int32 FilterSignal(int32 ADCSample, uint8 channel){
  28              		.loc 1 16 0
  29              		.cfi_startproc
  30              		@ args = 0, pretend = 0, frame = 0
  31              		@ frame_needed = 0, uses_anonymous_args = 0
  32              		@ link register save eliminated.
  33              	.LVL0:
  17:main.c        ****     
  18:main.c        **** 	/* Running filtered value accumulator */
  19:main.c        **** 	static int32 filteredValue[32] = {0,0};
  20:main.c        **** 	
  21:main.c        **** 	/* Filtered value rounded-off to 20-bits */
  22:main.c        **** 	int32 filValueRounded;
  23:main.c        **** 	
  24:main.c        **** 	/* Left shift input by MAX_FILTER_COEFF_SHIFT to allow divisions up to MAX_FILTER_COEFF_SHIFT */
ARM GAS  C:\Users\samue\AppData\Local\Temp\ccGYoRTw.s 			page 2


  25:main.c        **** 	ADCSample <<= 8;
  34              		.loc 1 25 0
  35 0000 0002     		lsls	r0, r0, #8
  36              	.LVL1:
  26:main.c        **** 	   
  27:main.c        **** 	/* Pass the filter input as it is for fast changes in input */
  28:main.c        ****     if((ADCSample > (filteredValue[channel] + (100*256))) || (ADCSample < (filteredValue[channel] -
  37              		.loc 1 28 0
  38 0002 8A00     		lsls	r2, r1, #2
  39 0004 0E4B     		ldr	r3, .L5
  40 0006 D358     		ldr	r3, [r2, r3]
  41 0008 C822     		movs	r2, #200
  42 000a D201     		lsls	r2, r2, #7
  43 000c 9A18     		adds	r2, r3, r2
  44 000e 9042     		cmp	r0, r2
  45 0010 03DC     		bgt	.L2
  46              		.loc 1 28 0 is_stmt 0 discriminator 1
  47 0012 0C4A     		ldr	r2, .L5+4
  48 0014 9A18     		adds	r2, r3, r2
  49 0016 9042     		cmp	r0, r2
  50 0018 03DA     		bge	.L3
  51              	.L2:
  29:main.c        ****         
  30:main.c        ****         filteredValue[channel] = ADCSample;
  52              		.loc 1 30 0 is_stmt 1
  53 001a 8B00     		lsls	r3, r1, #2
  54 001c 084A     		ldr	r2, .L5
  55 001e 9850     		str	r0, [r3, r2]
  56 0020 05E0     		b	.L4
  57              	.L3:
  31:main.c        ****         
  32:main.c        ****     }
  33:main.c        ****     
  34:main.c        ****     /* If not the first sample then based on filter coefficient, filter the input signal */
  35:main.c        ****     else{
  36:main.c        **** 		
  37:main.c        ****         /* IIR filter */
  38:main.c        **** 		filteredValue[channel] = filteredValue[channel] + ((ADCSample - filteredValue[channel]) >> 4);			
  58              		.loc 1 38 0
  59 0022 C01A     		subs	r0, r0, r3
  60              	.LVL2:
  61 0024 0011     		asrs	r0, r0, #4
  62 0026 1818     		adds	r0, r3, r0
  63 0028 8B00     		lsls	r3, r1, #2
  64 002a 054A     		ldr	r2, .L5
  65 002c 9850     		str	r0, [r3, r2]
  66              	.L4:
  39:main.c        ****         
  40:main.c        **** 	}
  41:main.c        **** 	
  42:main.c        **** 	/* Compensate filter result for  left shift of 8 and round off */
  43:main.c        **** 	filValueRounded = (filteredValue[channel] >> 8) + ((filteredValue[channel] & 0x00000080) >> 7);
  67              		.loc 1 43 0
  68 002e 8900     		lsls	r1, r1, #2
  69              	.LVL3:
  70 0030 034B     		ldr	r3, .L5
  71 0032 CB58     		ldr	r3, [r1, r3]
ARM GAS  C:\Users\samue\AppData\Local\Temp\ccGYoRTw.s 			page 3


  72 0034 1A12     		asrs	r2, r3, #8
  73 0036 DB11     		asrs	r3, r3, #7
  74 0038 0120     		movs	r0, #1
  75 003a 0340     		ands	r3, r0
  76 003c D018     		adds	r0, r2, r3
  77              	.LVL4:
  44:main.c        **** 	
  45:main.c        ****     return filValueRounded;
  46:main.c        **** }
  78              		.loc 1 46 0
  79              		@ sp needed
  80 003e 7047     		bx	lr
  81              	.L6:
  82              		.align	2
  83              	.L5:
  84 0040 00000000 		.word	.LANCHOR0
  85 0044 009CFFFF 		.word	-25600
  86              		.cfi_endproc
  87              	.LFE34:
  88              		.size	FilterSignal, .-FilterSignal
  89              		.global	__aeabi_idiv
  90              		.section	.text.main,"ax",%progbits
  91              		.align	2
  92              		.global	main
  93              		.code	16
  94              		.thumb_func
  95              		.type	main, %function
  96              	main:
  97              	.LFB35:
  47:main.c        **** 
  48:main.c        **** /* Initialize string for UART data transmission */
  49:main.c        **** char string[16];
  50:main.c        **** 
  51:main.c        **** int main(void)
  52:main.c        **** {  
  98              		.loc 1 52 0
  99              		.cfi_startproc
 100              		@ args = 0, pretend = 0, frame = 72
 101              		@ frame_needed = 0, uses_anonymous_args = 0
 102 0000 F0B5     		push	{r4, r5, r6, r7, lr}
 103              		.cfi_def_cfa_offset 20
 104              		.cfi_offset 4, -20
 105              		.cfi_offset 5, -16
 106              		.cfi_offset 6, -12
 107              		.cfi_offset 7, -8
 108              		.cfi_offset 14, -4
 109 0002 95B0     		sub	sp, sp, #84
 110              		.cfi_def_cfa_offset 104
 111              	.LVL5:
  53:main.c        ****     /* Voltages across reference resistor and thermistor*/
  54:main.c        **** 	int32 vref;
  55:main.c        ****     int32 vtherm;
  56:main.c        ****     
  57:main.c        ****     /* ADC offset voltage through Correlated Double Sampling */
  58:main.c        ****     int32 adcOffset;
  59:main.c        **** 	
  60:main.c        **** 	/* Resistance of Thermistor */
ARM GAS  C:\Users\samue\AppData\Local\Temp\ccGYoRTw.s 			page 4


  61:main.c        **** 	uint32 resT;
  62:main.c        **** 	
  63:main.c        **** 	/* Temperature value in 100ths of a degree C */
  64:main.c        **** 	int16 temp; 
  65:main.c        **** 	
  66:main.c        ****     /*Decimal Temp */
  67:main.c        ****     int32 decTemp;
  68:main.c        ****     
  69:main.c        ****     /*Fractional Temp */
  70:main.c        ****     int32 fracTemp;
  71:main.c        ****     
  72:main.c        ****     /* Channel */
  73:main.c        ****     int32 chan = 0;
  74:main.c        ****     int32 i;
  75:main.c        ****     
  76:main.c        ****     /* Temperature Array */
  77:main.c        ****     uint8 tempArr[32];
  78:main.c        ****     
  79:main.c        ****     /* I2C Read Buffer */
  80:main.c        ****     uint8 rdBuf[32];
  81:main.c        ****     
  82:main.c        ****     /* Enable global interrupts. */
  83:main.c        ****     CyGlobalIntEnable;
 112              		.loc 1 83 0
 113              		.syntax divided
 114              	@ 83 "main.c" 1
 115 0004 62B6     		CPSIE   i
 116              	@ 0 "" 2
  84:main.c        ****     
  85:main.c        ****     /* Initialize I2C Buffer */
  86:main.c        ****     I2C_1_I2CSlaveInitReadBuf(rdBuf, 32);
 117              		.loc 1 86 0
 118              		.thumb
 119              		.syntax unified
 120 0006 2021     		movs	r1, #32
 121 0008 04A8     		add	r0, sp, #16
 122 000a FFF7FEFF 		bl	I2C_1_I2CSlaveInitReadBuf
 123              	.LVL6:
  87:main.c        ****     I2C_1_I2CSlaveClearReadBuf();
 124              		.loc 1 87 0
 125 000e FFF7FEFF 		bl	I2C_1_I2CSlaveClearReadBuf
 126              	.LVL7:
  88:main.c        ****     I2C_1_I2CSlaveClearReadStatus();
 127              		.loc 1 88 0
 128 0012 FFF7FEFF 		bl	I2C_1_I2CSlaveClearReadStatus
 129              	.LVL8:
  89:main.c        ****     
  90:main.c        ****     /* Initialize all PSoC components */
  91:main.c        ****     Opamp_1_Start();
 130              		.loc 1 91 0
 131 0016 FFF7FEFF 		bl	Opamp_1_Start
 132              	.LVL9:
  92:main.c        ****     Opamp_2_Start();
 133              		.loc 1 92 0
 134 001a FFF7FEFF 		bl	Opamp_2_Start
 135              	.LVL10:
  93:main.c        ****     Opamp_3_Start();
ARM GAS  C:\Users\samue\AppData\Local\Temp\ccGYoRTw.s 			page 5


 136              		.loc 1 93 0
 137 001e FFF7FEFF 		bl	Opamp_3_Start
 138              	.LVL11:
  94:main.c        ****     AMux_1_Start();
 139              		.loc 1 94 0
 140 0022 FFF7FEFF 		bl	AMux_1_Start
 141              	.LVL12:
  95:main.c        ****     ADC_1_Start();
 142              		.loc 1 95 0
 143 0026 FFF7FEFF 		bl	ADC_1_Start
 144              	.LVL13:
  96:main.c        ****     I2C_1_Start();
 145              		.loc 1 96 0
 146 002a FFF7FEFF 		bl	I2C_1_Start
 147              	.LVL14:
  97:main.c        ****     UART_1_Start(); 
 148              		.loc 1 97 0
 149 002e FFF7FEFF 		bl	UART_1_Start
 150              	.LVL15:
  98:main.c        ****     
  99:main.c        ****     // Read ADC offset voltage (CDS)   
 100:main.c        ****     AMux_1_Select(32);
 151              		.loc 1 100 0
 152 0032 2020     		movs	r0, #32
 153 0034 FFF7FEFF 		bl	AMux_1_Select
 154              	.LVL16:
 101:main.c        ****     ADC_1_StartConvert();
 155              		.loc 1 101 0
 156 0038 FFF7FEFF 		bl	ADC_1_StartConvert
 157              	.LVL17:
 102:main.c        ****     ADC_1_IsEndConversion(ADC_1_WAIT_FOR_RESULT);
 158              		.loc 1 102 0
 159 003c 0220     		movs	r0, #2
 160 003e FFF7FEFF 		bl	ADC_1_IsEndConversion
 161              	.LVL18:
 103:main.c        ****     adcOffset = ADC_1_GetResult32(0);
 162              		.loc 1 103 0
 163 0042 0020     		movs	r0, #0
 164 0044 FFF7FEFF 		bl	ADC_1_GetResult32
 165              	.LVL19:
 166 0048 0600     		movs	r6, r0
 167              	.LVL20:
 104:main.c        ****     ADC_1_StopConvert();
 168              		.loc 1 104 0
 169 004a FFF7FEFF 		bl	ADC_1_StopConvert
 170              	.LVL21:
 171              	.L11:
 105:main.c        ****         
 106:main.c        ****     for(;;)
 107:main.c        ****     {
 108:main.c        ****         LED_Write(1);
 172              		.loc 1 108 0
 173 004e 0120     		movs	r0, #1
 174 0050 FFF7FEFF 		bl	LED_Write
 175              	.LVL22:
 109:main.c        ****         /* Initialize Voltage Reference component separately to reduce error from self-heating in t
 110:main.c        ****         PVref_1_Start();
ARM GAS  C:\Users\samue\AppData\Local\Temp\ccGYoRTw.s 			page 6


 176              		.loc 1 110 0
 177 0054 FFF7FEFF 		bl	PVref_1_Start
 178              	.LVL23:
 111:main.c        ****         PVref_1_Enable();
 179              		.loc 1 111 0
 180 0058 FFF7FEFF 		bl	PVref_1_Enable
 181              	.LVL24:
 112:main.c        ****                         
 113:main.c        ****         /* Scan through MUX channels, get temperature and send data */
 114:main.c        ****         for(chan=0; chan<32; chan=chan+2){
 182              		.loc 1 114 0
 183 005c 0024     		movs	r4, #0
 184 005e 4FE0     		b	.L8
 185              	.LVL25:
 186              	.L10:
 115:main.c        ****                       
 116:main.c        ****             AMux_1_Select(chan);
 187              		.loc 1 116 0
 188 0060 E5B2     		uxtb	r5, r4
 189 0062 2800     		movs	r0, r5
 190 0064 FFF7FEFF 		bl	AMux_1_Select
 191              	.LVL26:
 117:main.c        ****             ADC_1_StartConvert();
 192              		.loc 1 117 0
 193 0068 FFF7FEFF 		bl	ADC_1_StartConvert
 194              	.LVL27:
 118:main.c        ****             ADC_1_IsEndConversion(ADC_1_WAIT_FOR_RESULT);
 195              		.loc 1 118 0
 196 006c 0220     		movs	r0, #2
 197 006e FFF7FEFF 		bl	ADC_1_IsEndConversion
 198              	.LVL28:
 119:main.c        ****             vtherm = ADC_1_GetResult32(0);
 199              		.loc 1 119 0
 200 0072 0020     		movs	r0, #0
 201 0074 FFF7FEFF 		bl	ADC_1_GetResult32
 202              	.LVL29:
 203 0078 0700     		movs	r7, r0
 204              	.LVL30:
 120:main.c        ****             ADC_1_StopConvert();
 205              		.loc 1 120 0
 206 007a FFF7FEFF 		bl	ADC_1_StopConvert
 207              	.LVL31:
 121:main.c        ****             vtherm = vtherm - adcOffset;
 208              		.loc 1 121 0
 209 007e B81B     		subs	r0, r7, r6
 210              	.LVL32:
 122:main.c        ****             
 123:main.c        ****             /* IIR Filter for vtherm */
 124:main.c        ****             vtherm = FilterSignal(vtherm, chan);
 211              		.loc 1 124 0
 212 0080 2900     		movs	r1, r5
 213 0082 FFF7FEFF 		bl	FilterSignal
 214              	.LVL33:
 215 0086 0390     		str	r0, [sp, #12]
 216              	.LVL34:
 125:main.c        ****             
 126:main.c        ****             AMux_1_Select(chan+1);
ARM GAS  C:\Users\samue\AppData\Local\Temp\ccGYoRTw.s 			page 7


 217              		.loc 1 126 0
 218 0088 0135     		adds	r5, r5, #1
 219 008a EDB2     		uxtb	r5, r5
 220 008c 2800     		movs	r0, r5
 221              	.LVL35:
 222 008e FFF7FEFF 		bl	AMux_1_Select
 223              	.LVL36:
 127:main.c        ****             ADC_1_StartConvert();
 224              		.loc 1 127 0
 225 0092 FFF7FEFF 		bl	ADC_1_StartConvert
 226              	.LVL37:
 128:main.c        ****             ADC_1_IsEndConversion(ADC_1_WAIT_FOR_RESULT);
 227              		.loc 1 128 0
 228 0096 0220     		movs	r0, #2
 229 0098 FFF7FEFF 		bl	ADC_1_IsEndConversion
 230              	.LVL38:
 129:main.c        ****             vref = ADC_1_GetResult32(0);
 231              		.loc 1 129 0
 232 009c 0020     		movs	r0, #0
 233 009e FFF7FEFF 		bl	ADC_1_GetResult32
 234              	.LVL39:
 235 00a2 0700     		movs	r7, r0
 236              	.LVL40:
 130:main.c        ****             ADC_1_StopConvert();
 237              		.loc 1 130 0
 238 00a4 FFF7FEFF 		bl	ADC_1_StopConvert
 239              	.LVL41:
 131:main.c        ****             vref = vref - adcOffset;
 240              		.loc 1 131 0
 241 00a8 B81B     		subs	r0, r7, r6
 242              	.LVL42:
 132:main.c        ****             
 133:main.c        ****             /* IIR Filter for vref */
 134:main.c        ****             vref = FilterSignal(vref, chan+1);
 243              		.loc 1 134 0
 244 00aa 2900     		movs	r1, r5
 245 00ac FFF7FEFF 		bl	FilterSignal
 246              	.LVL43:
 135:main.c        ****             
 136:main.c        ****             resT = Thermistor_1_GetResistance(vref, vtherm);
 247              		.loc 1 136 0
 248 00b0 00B2     		sxth	r0, r0
 249              	.LVL44:
 250 00b2 6B46     		mov	r3, sp
 251 00b4 0C21     		movs	r1, #12
 252 00b6 595E     		ldrsh	r1, [r3, r1]
 253 00b8 FFF7FEFF 		bl	Thermistor_1_GetResistance
 254              	.LVL45:
 137:main.c        ****             temp = Thermistor_1_GetTemperature(resT);
 255              		.loc 1 137 0
 256 00bc FFF7FEFF 		bl	Thermistor_1_GetTemperature
 257              	.LVL46:
 258 00c0 0500     		movs	r5, r0
 259              	.LVL47:
 138:main.c        ****                        
 139:main.c        ****     	    //Determine decimal portion of temperature by dividing temperature by 100
 140:main.c        ****             decTemp = temp/100;
ARM GAS  C:\Users\samue\AppData\Local\Temp\ccGYoRTw.s 			page 8


 260              		.loc 1 140 0
 261 00c2 6421     		movs	r1, #100
 262 00c4 FFF7FEFF 		bl	__aeabi_idiv
 263              	.LVL48:
 264 00c8 03B2     		sxth	r3, r0
 265              	.LVL49:
 141:main.c        ****             
 142:main.c        ****             // Determine fraction portion of temperature by subtracting decimal portion from result
 143:main.c        ****             fracTemp = temp - (decTemp * 100);
 266              		.loc 1 143 0
 267 00ca 6421     		movs	r1, #100
 268 00cc 4942     		rsbs	r1, r1, #0
 269 00ce 5943     		muls	r1, r3
 270              	.LVL50:
 144:main.c        ****             
 145:main.c        ****             // If fractional temperature is negative make it positive 
 146:main.c        ****             if(fracTemp < 0) {
 271              		.loc 1 146 0
 272 00d0 6918     		adds	r1, r5, r1
 273 00d2 00D5     		bpl	.L9
 274              	.LVL51:
 147:main.c        ****                 fracTemp *= -1;
 275              		.loc 1 147 0
 276 00d4 4942     		rsbs	r1, r1, #0
 277              	.LVL52:
 278              	.L9:
 148:main.c        ****             }
 149:main.c        ****                        
 150:main.c        ****             /* Put temperature parts into an array */
 151:main.c        ****             tempArr[chan] = decTemp;
 279              		.loc 1 151 0 discriminator 2
 280 00d6 0CAA     		add	r2, sp, #48
 281 00d8 1355     		strb	r3, [r2, r4]
 152:main.c        ****             tempArr[chan+1] = fracTemp;
 282              		.loc 1 152 0 discriminator 2
 283 00da 601C     		adds	r0, r4, #1
 284 00dc 1154     		strb	r1, [r2, r0]
 153:main.c        ****             
 154:main.c        ****             // Get thermistor number
 155:main.c        ****              i = (chan/2) + 1;
 285              		.loc 1 155 0 discriminator 2
 286 00de E20F     		lsrs	r2, r4, #31
 287 00e0 1219     		adds	r2, r2, r4
 288 00e2 5210     		asrs	r2, r2, #1
 289 00e4 0132     		adds	r2, r2, #1
 290              	.LVL53:
 156:main.c        ****              //UART Transmission for Debug
 157:main.c        ****              sprintf(string, "Therm %ld = %ld.%.2ld", i, decTemp, fracTemp); 
 291              		.loc 1 157 0 discriminator 2
 292 00e6 0F4D     		ldr	r5, .L12
 293 00e8 0091     		str	r1, [sp]
 294 00ea 0F49     		ldr	r1, .L12+4
 295              	.LVL54:
 296 00ec 2800     		movs	r0, r5
 297 00ee FFF7FEFF 		bl	sprintf
 298              	.LVL55:
 158:main.c        ****              UART_1_UartPutString(string);
ARM GAS  C:\Users\samue\AppData\Local\Temp\ccGYoRTw.s 			page 9


 299              		.loc 1 158 0 discriminator 2
 300 00f2 2800     		movs	r0, r5
 301 00f4 FFF7FEFF 		bl	UART_1_UartPutString
 302              	.LVL56:
 159:main.c        ****              UART_1_UartPutString("\n\r");
 303              		.loc 1 159 0 discriminator 2
 304 00f8 0C48     		ldr	r0, .L12+8
 305 00fa FFF7FEFF 		bl	UART_1_UartPutString
 306              	.LVL57:
 114:main.c        ****                       
 307              		.loc 1 114 0 discriminator 2
 308 00fe 0234     		adds	r4, r4, #2
 309              	.LVL58:
 310              	.L8:
 114:main.c        ****                       
 311              		.loc 1 114 0 is_stmt 0 discriminator 1
 312 0100 1F2C     		cmp	r4, #31
 313 0102 ADDD     		ble	.L10
 160:main.c        ****             
 161:main.c        ****         }      
 162:main.c        ****         
 163:main.c        ****         /* Copy temperature data to I2C read buffer */
 164:main.c        ****         memcpy(rdBuf, tempArr, 32);
 314              		.loc 1 164 0 is_stmt 1
 315 0104 2022     		movs	r2, #32
 316 0106 0CA9     		add	r1, sp, #48
 317 0108 04A8     		add	r0, sp, #16
 318 010a FFF7FEFF 		bl	memcpy
 319              	.LVL59:
 165:main.c        ****                 
 166:main.c        ****         /* Clear I2C read buffer and any previous status */
 167:main.c        ****         I2C_1_I2CSlaveClearReadBuf();
 320              		.loc 1 167 0
 321 010e FFF7FEFF 		bl	I2C_1_I2CSlaveClearReadBuf
 322              	.LVL60:
 168:main.c        ****         I2C_1_I2CSlaveClearReadStatus(); 
 323              		.loc 1 168 0
 324 0112 FFF7FEFF 		bl	I2C_1_I2CSlaveClearReadStatus
 325              	.LVL61:
 169:main.c        ****                 
 170:main.c        ****         /* Dsiable Voltage Reference to help reduce error due to self-heating */
 171:main.c        ****         PVref_1_Stop();
 326              		.loc 1 171 0
 327 0116 FFF7FEFF 		bl	PVref_1_Stop
 328              	.LVL62:
 172:main.c        ****         
 173:main.c        ****         /* Wait five seconds */
 174:main.c        ****         CyDelay(100);//(500);
 329              		.loc 1 174 0
 330 011a 6420     		movs	r0, #100
 331 011c FFF7FEFF 		bl	CyDelay
 332              	.LVL63:
 175:main.c        ****     }
 333              		.loc 1 175 0
 334 0120 95E7     		b	.L11
 335              	.L13:
 336 0122 C046     		.align	2
ARM GAS  C:\Users\samue\AppData\Local\Temp\ccGYoRTw.s 			page 10


 337              	.L12:
 338 0124 00000000 		.word	string
 339 0128 00000000 		.word	.LC1
 340 012c 18000000 		.word	.LC4
 341              		.cfi_endproc
 342              	.LFE35:
 343              		.size	main, .-main
 344              		.comm	string,16,4
 345              		.section	.rodata.str1.4,"aMS",%progbits,1
 346              		.align	2
 347              	.LC1:
 348 0000 54686572 		.ascii	"Therm %ld = %ld.%.2ld\000"
 348      6D20256C 
 348      64203D20 
 348      256C642E 
 348      252E326C 
 349 0016 0000     		.space	2
 350              	.LC4:
 351 0018 0A0D00   		.ascii	"\012\015\000"
 352              		.bss
 353              		.align	2
 354              		.set	.LANCHOR0,. + 0
 355              		.type	filteredValue.7665, %object
 356              		.size	filteredValue.7665, 128
 357              	filteredValue.7665:
 358 0000 00000000 		.space	128
 358      00000000 
 358      00000000 
 358      00000000 
 358      00000000 
 359              		.text
 360              	.Letext0:
 361              		.file 2 "Generated_Source\\PSoC4/cytypes.h"
 362              		.file 3 "Generated_Source\\PSoC4/I2C_1_I2C.h"
 363              		.file 4 "Generated_Source\\PSoC4/Opamp_1.h"
 364              		.file 5 "Generated_Source\\PSoC4/Opamp_2.h"
 365              		.file 6 "Generated_Source\\PSoC4/Opamp_3.h"
 366              		.file 7 "Generated_Source\\PSoC4/AMux_1.h"
 367              		.file 8 "Generated_Source\\PSoC4/ADC_1.h"
 368              		.file 9 "Generated_Source\\PSoC4/I2C_1.h"
 369              		.file 10 "Generated_Source\\PSoC4/UART_1.h"
 370              		.file 11 "Generated_Source\\PSoC4/LED.h"
 371              		.file 12 "Generated_Source\\PSoC4/PVref_1.h"
 372              		.file 13 "Generated_Source\\PSoC4/Thermistor_1.h"
 373              		.file 14 "c:\\program files (x86)\\cypress\\psoc creator\\4.3\\psoc creator\\import\\gnu\\arm\\5.4
 374              		.file 15 "Generated_Source\\PSoC4/UART_1_SPI_UART.h"
 375              		.file 16 "Generated_Source\\PSoC4/CyLib.h"
 376              		.section	.debug_info,"",%progbits
 377              	.Ldebug_info0:
 378 0000 94050000 		.4byte	0x594
 379 0004 0400     		.2byte	0x4
 380 0006 00000000 		.4byte	.Ldebug_abbrev0
 381 000a 04       		.byte	0x4
 382 000b 01       		.uleb128 0x1
 383 000c 54000000 		.4byte	.LASF56
 384 0010 0C       		.byte	0xc
 385 0011 8C020000 		.4byte	.LASF57
ARM GAS  C:\Users\samue\AppData\Local\Temp\ccGYoRTw.s 			page 11


 386 0015 C7020000 		.4byte	.LASF58
 387 0019 00000000 		.4byte	.Ldebug_ranges0+0
 388 001d 00000000 		.4byte	0
 389 0021 00000000 		.4byte	.Ldebug_line0
 390 0025 02       		.uleb128 0x2
 391 0026 01       		.byte	0x1
 392 0027 06       		.byte	0x6
 393 0028 20020000 		.4byte	.LASF0
 394 002c 02       		.uleb128 0x2
 395 002d 01       		.byte	0x1
 396 002e 08       		.byte	0x8
 397 002f EF010000 		.4byte	.LASF1
 398 0033 02       		.uleb128 0x2
 399 0034 02       		.byte	0x2
 400 0035 05       		.byte	0x5
 401 0036 41000000 		.4byte	.LASF2
 402 003a 02       		.uleb128 0x2
 403 003b 02       		.byte	0x2
 404 003c 07       		.byte	0x7
 405 003d 50020000 		.4byte	.LASF3
 406 0041 02       		.uleb128 0x2
 407 0042 04       		.byte	0x4
 408 0043 05       		.byte	0x5
 409 0044 B7010000 		.4byte	.LASF4
 410 0048 02       		.uleb128 0x2
 411 0049 04       		.byte	0x4
 412 004a 07       		.byte	0x7
 413 004b 93020000 		.4byte	.LASF5
 414 004f 02       		.uleb128 0x2
 415 0050 08       		.byte	0x8
 416 0051 05       		.byte	0x5
 417 0052 9B010000 		.4byte	.LASF6
 418 0056 02       		.uleb128 0x2
 419 0057 08       		.byte	0x8
 420 0058 07       		.byte	0x7
 421 0059 2C020000 		.4byte	.LASF7
 422 005d 03       		.uleb128 0x3
 423 005e 04       		.byte	0x4
 424 005f 05       		.byte	0x5
 425 0060 696E7400 		.ascii	"int\000"
 426 0064 02       		.uleb128 0x2
 427 0065 04       		.byte	0x4
 428 0066 07       		.byte	0x7
 429 0067 43020000 		.4byte	.LASF8
 430 006b 04       		.uleb128 0x4
 431 006c 3D010000 		.4byte	.LASF9
 432 0070 02       		.byte	0x2
 433 0071 F701     		.2byte	0x1f7
 434 0073 2C000000 		.4byte	0x2c
 435 0077 04       		.uleb128 0x4
 436 0078 85020000 		.4byte	.LASF10
 437 007c 02       		.byte	0x2
 438 007d F901     		.2byte	0x1f9
 439 007f 48000000 		.4byte	0x48
 440 0083 04       		.uleb128 0x4
 441 0084 2D010000 		.4byte	.LASF11
 442 0088 02       		.byte	0x2
ARM GAS  C:\Users\samue\AppData\Local\Temp\ccGYoRTw.s 			page 12


 443 0089 FB01     		.2byte	0x1fb
 444 008b 33000000 		.4byte	0x33
 445 008f 04       		.uleb128 0x4
 446 0090 A5020000 		.4byte	.LASF12
 447 0094 02       		.byte	0x2
 448 0095 FC01     		.2byte	0x1fc
 449 0097 41000000 		.4byte	0x41
 450 009b 02       		.uleb128 0x2
 451 009c 04       		.byte	0x4
 452 009d 04       		.byte	0x4
 453 009e 8E010000 		.4byte	.LASF13
 454 00a2 02       		.uleb128 0x2
 455 00a3 08       		.byte	0x8
 456 00a4 04       		.byte	0x4
 457 00a5 AB020000 		.4byte	.LASF14
 458 00a9 02       		.uleb128 0x2
 459 00aa 01       		.byte	0x1
 460 00ab 08       		.byte	0x8
 461 00ac 68020000 		.4byte	.LASF15
 462 00b0 02       		.uleb128 0x2
 463 00b1 08       		.byte	0x8
 464 00b2 04       		.byte	0x4
 465 00b3 E3010000 		.4byte	.LASF16
 466 00b7 02       		.uleb128 0x2
 467 00b8 04       		.byte	0x4
 468 00b9 07       		.byte	0x7
 469 00ba 4B000000 		.4byte	.LASF17
 470 00be 05       		.uleb128 0x5
 471 00bf 0E010000 		.4byte	.LASF59
 472 00c3 01       		.byte	0x1
 473 00c4 10       		.byte	0x10
 474 00c5 8F000000 		.4byte	0x8f
 475 00c9 00000000 		.4byte	.LFB34
 476 00cd 48000000 		.4byte	.LFE34-.LFB34
 477 00d1 01       		.uleb128 0x1
 478 00d2 9C       		.byte	0x9c
 479 00d3 14010000 		.4byte	0x114
 480 00d7 06       		.uleb128 0x6
 481 00d8 E6000000 		.4byte	.LASF18
 482 00dc 01       		.byte	0x1
 483 00dd 10       		.byte	0x10
 484 00de 8F000000 		.4byte	0x8f
 485 00e2 00000000 		.4byte	.LLST0
 486 00e6 06       		.uleb128 0x6
 487 00e7 6D020000 		.4byte	.LASF19
 488 00eb 01       		.byte	0x1
 489 00ec 10       		.byte	0x10
 490 00ed 6B000000 		.4byte	0x6b
 491 00f1 2E000000 		.4byte	.LLST1
 492 00f5 07       		.uleb128 0x7
 493 00f6 D3030000 		.4byte	.LASF20
 494 00fa 01       		.byte	0x1
 495 00fb 13       		.byte	0x13
 496 00fc 14010000 		.4byte	0x114
 497 0100 05       		.uleb128 0x5
 498 0101 03       		.byte	0x3
 499 0102 00000000 		.4byte	filteredValue.7665
ARM GAS  C:\Users\samue\AppData\Local\Temp\ccGYoRTw.s 			page 13


 500 0106 07       		.uleb128 0x7
 501 0107 75020000 		.4byte	.LASF21
 502 010b 01       		.byte	0x1
 503 010c 16       		.byte	0x16
 504 010d 8F000000 		.4byte	0x8f
 505 0111 01       		.uleb128 0x1
 506 0112 50       		.byte	0x50
 507 0113 00       		.byte	0
 508 0114 08       		.uleb128 0x8
 509 0115 8F000000 		.4byte	0x8f
 510 0119 24010000 		.4byte	0x124
 511 011d 09       		.uleb128 0x9
 512 011e B7000000 		.4byte	0xb7
 513 0122 1F       		.byte	0x1f
 514 0123 00       		.byte	0
 515 0124 0A       		.uleb128 0xa
 516 0125 F0000000 		.4byte	.LASF60
 517 0129 01       		.byte	0x1
 518 012a 33       		.byte	0x33
 519 012b 5D000000 		.4byte	0x5d
 520 012f 00000000 		.4byte	.LFB35
 521 0133 30010000 		.4byte	.LFE35-.LFB35
 522 0137 01       		.uleb128 0x1
 523 0138 9C       		.byte	0x9c
 524 0139 51040000 		.4byte	0x451
 525 013d 0B       		.uleb128 0xb
 526 013e A8030000 		.4byte	.LASF22
 527 0142 01       		.byte	0x1
 528 0143 36       		.byte	0x36
 529 0144 8F000000 		.4byte	0x8f
 530 0148 4F000000 		.4byte	.LLST2
 531 014c 0B       		.uleb128 0xb
 532 014d 94010000 		.4byte	.LASF23
 533 0151 01       		.byte	0x1
 534 0152 37       		.byte	0x37
 535 0153 8F000000 		.4byte	0x8f
 536 0157 93000000 		.4byte	.LLST3
 537 015b 0B       		.uleb128 0xb
 538 015c 33010000 		.4byte	.LASF24
 539 0160 01       		.byte	0x1
 540 0161 3A       		.byte	0x3a
 541 0162 8F000000 		.4byte	0x8f
 542 0166 E4000000 		.4byte	.LLST4
 543 016a 0B       		.uleb128 0xb
 544 016b 1F000000 		.4byte	.LASF25
 545 016f 01       		.byte	0x1
 546 0170 3D       		.byte	0x3d
 547 0171 77000000 		.4byte	0x77
 548 0175 02010000 		.4byte	.LLST5
 549 0179 0B       		.uleb128 0xb
 550 017a 3C000000 		.4byte	.LASF26
 551 017e 01       		.byte	0x1
 552 017f 40       		.byte	0x40
 553 0180 83000000 		.4byte	0x83
 554 0184 15010000 		.4byte	.LLST6
 555 0188 0B       		.uleb128 0xb
 556 0189 C7010000 		.4byte	.LASF27
ARM GAS  C:\Users\samue\AppData\Local\Temp\ccGYoRTw.s 			page 14


 557 018d 01       		.byte	0x1
 558 018e 43       		.byte	0x43
 559 018f 8F000000 		.4byte	0x8f
 560 0193 28010000 		.4byte	.LLST7
 561 0197 0B       		.uleb128 0xb
 562 0198 43010000 		.4byte	.LASF28
 563 019c 01       		.byte	0x1
 564 019d 46       		.byte	0x46
 565 019e 8F000000 		.4byte	0x8f
 566 01a2 3B010000 		.4byte	.LLST8
 567 01a6 0B       		.uleb128 0xb
 568 01a7 63020000 		.4byte	.LASF29
 569 01ab 01       		.byte	0x1
 570 01ac 49       		.byte	0x49
 571 01ad 8F000000 		.4byte	0x8f
 572 01b1 6A010000 		.4byte	.LLST9
 573 01b5 0C       		.uleb128 0xc
 574 01b6 6900     		.ascii	"i\000"
 575 01b8 01       		.byte	0x1
 576 01b9 4A       		.byte	0x4a
 577 01ba 8F000000 		.4byte	0x8f
 578 01be 95010000 		.4byte	.LLST10
 579 01c2 07       		.uleb128 0x7
 580 01c3 76030000 		.4byte	.LASF30
 581 01c7 01       		.byte	0x1
 582 01c8 4D       		.byte	0x4d
 583 01c9 51040000 		.4byte	0x451
 584 01cd 02       		.uleb128 0x2
 585 01ce 91       		.byte	0x91
 586 01cf 48       		.sleb128 -56
 587 01d0 07       		.uleb128 0x7
 588 01d1 CF010000 		.4byte	.LASF31
 589 01d5 01       		.byte	0x1
 590 01d6 50       		.byte	0x50
 591 01d7 51040000 		.4byte	0x451
 592 01db 03       		.uleb128 0x3
 593 01dc 91       		.byte	0x91
 594 01dd A87F     		.sleb128 -88
 595 01df 0D       		.uleb128 0xd
 596 01e0 0E000000 		.4byte	.LVL6
 597 01e4 82040000 		.4byte	0x482
 598 01e8 FA010000 		.4byte	0x1fa
 599 01ec 0E       		.uleb128 0xe
 600 01ed 01       		.uleb128 0x1
 601 01ee 50       		.byte	0x50
 602 01ef 03       		.uleb128 0x3
 603 01f0 91       		.byte	0x91
 604 01f1 A87F     		.sleb128 -88
 605 01f3 0E       		.uleb128 0xe
 606 01f4 01       		.uleb128 0x1
 607 01f5 51       		.byte	0x51
 608 01f6 02       		.uleb128 0x2
 609 01f7 08       		.byte	0x8
 610 01f8 20       		.byte	0x20
 611 01f9 00       		.byte	0
 612 01fa 0F       		.uleb128 0xf
 613 01fb 12000000 		.4byte	.LVL7
ARM GAS  C:\Users\samue\AppData\Local\Temp\ccGYoRTw.s 			page 15


 614 01ff 8E040000 		.4byte	0x48e
 615 0203 0F       		.uleb128 0xf
 616 0204 16000000 		.4byte	.LVL8
 617 0208 9A040000 		.4byte	0x49a
 618 020c 0F       		.uleb128 0xf
 619 020d 1A000000 		.4byte	.LVL9
 620 0211 A6040000 		.4byte	0x4a6
 621 0215 0F       		.uleb128 0xf
 622 0216 1E000000 		.4byte	.LVL10
 623 021a B1040000 		.4byte	0x4b1
 624 021e 0F       		.uleb128 0xf
 625 021f 22000000 		.4byte	.LVL11
 626 0223 BC040000 		.4byte	0x4bc
 627 0227 0F       		.uleb128 0xf
 628 0228 26000000 		.4byte	.LVL12
 629 022c C7040000 		.4byte	0x4c7
 630 0230 0F       		.uleb128 0xf
 631 0231 2A000000 		.4byte	.LVL13
 632 0235 D2040000 		.4byte	0x4d2
 633 0239 0F       		.uleb128 0xf
 634 023a 2E000000 		.4byte	.LVL14
 635 023e DD040000 		.4byte	0x4dd
 636 0242 0F       		.uleb128 0xf
 637 0243 32000000 		.4byte	.LVL15
 638 0247 E8040000 		.4byte	0x4e8
 639 024b 0D       		.uleb128 0xd
 640 024c 38000000 		.4byte	.LVL16
 641 0250 F3040000 		.4byte	0x4f3
 642 0254 5F020000 		.4byte	0x25f
 643 0258 0E       		.uleb128 0xe
 644 0259 01       		.uleb128 0x1
 645 025a 50       		.byte	0x50
 646 025b 02       		.uleb128 0x2
 647 025c 08       		.byte	0x8
 648 025d 20       		.byte	0x20
 649 025e 00       		.byte	0
 650 025f 0F       		.uleb128 0xf
 651 0260 3C000000 		.4byte	.LVL17
 652 0264 FE040000 		.4byte	0x4fe
 653 0268 0D       		.uleb128 0xd
 654 0269 42000000 		.4byte	.LVL18
 655 026d 09050000 		.4byte	0x509
 656 0271 7B020000 		.4byte	0x27b
 657 0275 0E       		.uleb128 0xe
 658 0276 01       		.uleb128 0x1
 659 0277 50       		.byte	0x50
 660 0278 01       		.uleb128 0x1
 661 0279 32       		.byte	0x32
 662 027a 00       		.byte	0
 663 027b 0D       		.uleb128 0xd
 664 027c 48000000 		.4byte	.LVL19
 665 0280 14050000 		.4byte	0x514
 666 0284 8E020000 		.4byte	0x28e
 667 0288 0E       		.uleb128 0xe
 668 0289 01       		.uleb128 0x1
 669 028a 50       		.byte	0x50
 670 028b 01       		.uleb128 0x1
ARM GAS  C:\Users\samue\AppData\Local\Temp\ccGYoRTw.s 			page 16


 671 028c 30       		.byte	0x30
 672 028d 00       		.byte	0
 673 028e 0F       		.uleb128 0xf
 674 028f 4E000000 		.4byte	.LVL21
 675 0293 1F050000 		.4byte	0x51f
 676 0297 0D       		.uleb128 0xd
 677 0298 54000000 		.4byte	.LVL22
 678 029c 2A050000 		.4byte	0x52a
 679 02a0 AA020000 		.4byte	0x2aa
 680 02a4 0E       		.uleb128 0xe
 681 02a5 01       		.uleb128 0x1
 682 02a6 50       		.byte	0x50
 683 02a7 01       		.uleb128 0x1
 684 02a8 31       		.byte	0x31
 685 02a9 00       		.byte	0
 686 02aa 0F       		.uleb128 0xf
 687 02ab 58000000 		.4byte	.LVL23
 688 02af 35050000 		.4byte	0x535
 689 02b3 0F       		.uleb128 0xf
 690 02b4 5C000000 		.4byte	.LVL24
 691 02b8 40050000 		.4byte	0x540
 692 02bc 0D       		.uleb128 0xd
 693 02bd 68000000 		.4byte	.LVL26
 694 02c1 F3040000 		.4byte	0x4f3
 695 02c5 D0020000 		.4byte	0x2d0
 696 02c9 0E       		.uleb128 0xe
 697 02ca 01       		.uleb128 0x1
 698 02cb 50       		.byte	0x50
 699 02cc 02       		.uleb128 0x2
 700 02cd 75       		.byte	0x75
 701 02ce 00       		.sleb128 0
 702 02cf 00       		.byte	0
 703 02d0 0F       		.uleb128 0xf
 704 02d1 6C000000 		.4byte	.LVL27
 705 02d5 FE040000 		.4byte	0x4fe
 706 02d9 0D       		.uleb128 0xd
 707 02da 72000000 		.4byte	.LVL28
 708 02de 09050000 		.4byte	0x509
 709 02e2 EC020000 		.4byte	0x2ec
 710 02e6 0E       		.uleb128 0xe
 711 02e7 01       		.uleb128 0x1
 712 02e8 50       		.byte	0x50
 713 02e9 01       		.uleb128 0x1
 714 02ea 32       		.byte	0x32
 715 02eb 00       		.byte	0
 716 02ec 0D       		.uleb128 0xd
 717 02ed 78000000 		.4byte	.LVL29
 718 02f1 14050000 		.4byte	0x514
 719 02f5 FF020000 		.4byte	0x2ff
 720 02f9 0E       		.uleb128 0xe
 721 02fa 01       		.uleb128 0x1
 722 02fb 50       		.byte	0x50
 723 02fc 01       		.uleb128 0x1
 724 02fd 30       		.byte	0x30
 725 02fe 00       		.byte	0
 726 02ff 0F       		.uleb128 0xf
 727 0300 7E000000 		.4byte	.LVL31
ARM GAS  C:\Users\samue\AppData\Local\Temp\ccGYoRTw.s 			page 17


 728 0304 1F050000 		.4byte	0x51f
 729 0308 0D       		.uleb128 0xd
 730 0309 86000000 		.4byte	.LVL33
 731 030d BE000000 		.4byte	0xbe
 732 0311 25030000 		.4byte	0x325
 733 0315 0E       		.uleb128 0xe
 734 0316 01       		.uleb128 0x1
 735 0317 50       		.byte	0x50
 736 0318 05       		.uleb128 0x5
 737 0319 77       		.byte	0x77
 738 031a 00       		.sleb128 0
 739 031b 76       		.byte	0x76
 740 031c 00       		.sleb128 0
 741 031d 1C       		.byte	0x1c
 742 031e 0E       		.uleb128 0xe
 743 031f 01       		.uleb128 0x1
 744 0320 51       		.byte	0x51
 745 0321 02       		.uleb128 0x2
 746 0322 75       		.byte	0x75
 747 0323 00       		.sleb128 0
 748 0324 00       		.byte	0
 749 0325 0D       		.uleb128 0xd
 750 0326 92000000 		.4byte	.LVL36
 751 032a F3040000 		.4byte	0x4f3
 752 032e 39030000 		.4byte	0x339
 753 0332 0E       		.uleb128 0xe
 754 0333 01       		.uleb128 0x1
 755 0334 50       		.byte	0x50
 756 0335 02       		.uleb128 0x2
 757 0336 75       		.byte	0x75
 758 0337 00       		.sleb128 0
 759 0338 00       		.byte	0
 760 0339 0F       		.uleb128 0xf
 761 033a 96000000 		.4byte	.LVL37
 762 033e FE040000 		.4byte	0x4fe
 763 0342 0D       		.uleb128 0xd
 764 0343 9C000000 		.4byte	.LVL38
 765 0347 09050000 		.4byte	0x509
 766 034b 55030000 		.4byte	0x355
 767 034f 0E       		.uleb128 0xe
 768 0350 01       		.uleb128 0x1
 769 0351 50       		.byte	0x50
 770 0352 01       		.uleb128 0x1
 771 0353 32       		.byte	0x32
 772 0354 00       		.byte	0
 773 0355 0D       		.uleb128 0xd
 774 0356 A2000000 		.4byte	.LVL39
 775 035a 14050000 		.4byte	0x514
 776 035e 68030000 		.4byte	0x368
 777 0362 0E       		.uleb128 0xe
 778 0363 01       		.uleb128 0x1
 779 0364 50       		.byte	0x50
 780 0365 01       		.uleb128 0x1
 781 0366 30       		.byte	0x30
 782 0367 00       		.byte	0
 783 0368 0F       		.uleb128 0xf
 784 0369 A8000000 		.4byte	.LVL41
ARM GAS  C:\Users\samue\AppData\Local\Temp\ccGYoRTw.s 			page 18


 785 036d 1F050000 		.4byte	0x51f
 786 0371 0D       		.uleb128 0xd
 787 0372 B0000000 		.4byte	.LVL43
 788 0376 BE000000 		.4byte	0xbe
 789 037a 8E030000 		.4byte	0x38e
 790 037e 0E       		.uleb128 0xe
 791 037f 01       		.uleb128 0x1
 792 0380 50       		.byte	0x50
 793 0381 05       		.uleb128 0x5
 794 0382 77       		.byte	0x77
 795 0383 00       		.sleb128 0
 796 0384 76       		.byte	0x76
 797 0385 00       		.sleb128 0
 798 0386 1C       		.byte	0x1c
 799 0387 0E       		.uleb128 0xe
 800 0388 01       		.uleb128 0x1
 801 0389 51       		.byte	0x51
 802 038a 02       		.uleb128 0x2
 803 038b 75       		.byte	0x75
 804 038c 00       		.sleb128 0
 805 038d 00       		.byte	0
 806 038e 0D       		.uleb128 0xd
 807 038f BC000000 		.4byte	.LVL45
 808 0393 4B050000 		.4byte	0x54b
 809 0397 A4030000 		.4byte	0x3a4
 810 039b 0E       		.uleb128 0xe
 811 039c 01       		.uleb128 0x1
 812 039d 51       		.byte	0x51
 813 039e 04       		.uleb128 0x4
 814 039f 7D       		.byte	0x7d
 815 03a0 0C       		.sleb128 12
 816 03a1 94       		.byte	0x94
 817 03a2 02       		.byte	0x2
 818 03a3 00       		.byte	0
 819 03a4 0F       		.uleb128 0xf
 820 03a5 C0000000 		.4byte	.LVL46
 821 03a9 56050000 		.4byte	0x556
 822 03ad 0D       		.uleb128 0xd
 823 03ae F2000000 		.4byte	.LVL55
 824 03b2 61050000 		.4byte	0x561
 825 03b6 D9030000 		.4byte	0x3d9
 826 03ba 0E       		.uleb128 0xe
 827 03bb 01       		.uleb128 0x1
 828 03bc 50       		.byte	0x50
 829 03bd 02       		.uleb128 0x2
 830 03be 75       		.byte	0x75
 831 03bf 00       		.sleb128 0
 832 03c0 0E       		.uleb128 0xe
 833 03c1 01       		.uleb128 0x1
 834 03c2 51       		.byte	0x51
 835 03c3 05       		.uleb128 0x5
 836 03c4 03       		.byte	0x3
 837 03c5 00000000 		.4byte	.LC1
 838 03c9 0E       		.uleb128 0xe
 839 03ca 01       		.uleb128 0x1
 840 03cb 52       		.byte	0x52
 841 03cc 0B       		.uleb128 0xb
ARM GAS  C:\Users\samue\AppData\Local\Temp\ccGYoRTw.s 			page 19


 842 03cd 74       		.byte	0x74
 843 03ce 00       		.sleb128 0
 844 03cf 4F       		.byte	0x4f
 845 03d0 25       		.byte	0x25
 846 03d1 74       		.byte	0x74
 847 03d2 00       		.sleb128 0
 848 03d3 22       		.byte	0x22
 849 03d4 31       		.byte	0x31
 850 03d5 26       		.byte	0x26
 851 03d6 23       		.byte	0x23
 852 03d7 01       		.uleb128 0x1
 853 03d8 00       		.byte	0
 854 03d9 0D       		.uleb128 0xd
 855 03da F8000000 		.4byte	.LVL56
 856 03de 6C050000 		.4byte	0x56c
 857 03e2 ED030000 		.4byte	0x3ed
 858 03e6 0E       		.uleb128 0xe
 859 03e7 01       		.uleb128 0x1
 860 03e8 50       		.byte	0x50
 861 03e9 02       		.uleb128 0x2
 862 03ea 75       		.byte	0x75
 863 03eb 00       		.sleb128 0
 864 03ec 00       		.byte	0
 865 03ed 0D       		.uleb128 0xd
 866 03ee FE000000 		.4byte	.LVL57
 867 03f2 6C050000 		.4byte	0x56c
 868 03f6 04040000 		.4byte	0x404
 869 03fa 0E       		.uleb128 0xe
 870 03fb 01       		.uleb128 0x1
 871 03fc 50       		.byte	0x50
 872 03fd 05       		.uleb128 0x5
 873 03fe 03       		.byte	0x3
 874 03ff 18000000 		.4byte	.LC4
 875 0403 00       		.byte	0
 876 0404 0D       		.uleb128 0xd
 877 0405 0E010000 		.4byte	.LVL59
 878 0409 78050000 		.4byte	0x578
 879 040d 25040000 		.4byte	0x425
 880 0411 0E       		.uleb128 0xe
 881 0412 01       		.uleb128 0x1
 882 0413 50       		.byte	0x50
 883 0414 03       		.uleb128 0x3
 884 0415 91       		.byte	0x91
 885 0416 A87F     		.sleb128 -88
 886 0418 0E       		.uleb128 0xe
 887 0419 01       		.uleb128 0x1
 888 041a 51       		.byte	0x51
 889 041b 02       		.uleb128 0x2
 890 041c 91       		.byte	0x91
 891 041d 48       		.sleb128 -56
 892 041e 0E       		.uleb128 0xe
 893 041f 01       		.uleb128 0x1
 894 0420 52       		.byte	0x52
 895 0421 02       		.uleb128 0x2
 896 0422 08       		.byte	0x8
 897 0423 20       		.byte	0x20
 898 0424 00       		.byte	0
ARM GAS  C:\Users\samue\AppData\Local\Temp\ccGYoRTw.s 			page 20


 899 0425 0F       		.uleb128 0xf
 900 0426 12010000 		.4byte	.LVL60
 901 042a 8E040000 		.4byte	0x48e
 902 042e 0F       		.uleb128 0xf
 903 042f 16010000 		.4byte	.LVL61
 904 0433 9A040000 		.4byte	0x49a
 905 0437 0F       		.uleb128 0xf
 906 0438 1A010000 		.4byte	.LVL62
 907 043c 81050000 		.4byte	0x581
 908 0440 10       		.uleb128 0x10
 909 0441 20010000 		.4byte	.LVL63
 910 0445 8C050000 		.4byte	0x58c
 911 0449 0E       		.uleb128 0xe
 912 044a 01       		.uleb128 0x1
 913 044b 50       		.byte	0x50
 914 044c 02       		.uleb128 0x2
 915 044d 08       		.byte	0x8
 916 044e 64       		.byte	0x64
 917 044f 00       		.byte	0
 918 0450 00       		.byte	0
 919 0451 08       		.uleb128 0x8
 920 0452 6B000000 		.4byte	0x6b
 921 0456 61040000 		.4byte	0x461
 922 045a 09       		.uleb128 0x9
 923 045b B7000000 		.4byte	0xb7
 924 045f 1F       		.byte	0x1f
 925 0460 00       		.byte	0
 926 0461 08       		.uleb128 0x8
 927 0462 A9000000 		.4byte	0xa9
 928 0466 71040000 		.4byte	0x471
 929 046a 09       		.uleb128 0x9
 930 046b B7000000 		.4byte	0xb7
 931 046f 0F       		.byte	0xf
 932 0470 00       		.byte	0
 933 0471 11       		.uleb128 0x11
 934 0472 C0010000 		.4byte	.LASF61
 935 0476 01       		.byte	0x1
 936 0477 31       		.byte	0x31
 937 0478 61040000 		.4byte	0x461
 938 047c 05       		.uleb128 0x5
 939 047d 03       		.byte	0x3
 940 047e 00000000 		.4byte	string
 941 0482 12       		.uleb128 0x12
 942 0483 2B030000 		.4byte	.LASF32
 943 0487 2B030000 		.4byte	.LASF32
 944 048b 03       		.byte	0x3
 945 048c 2E01     		.2byte	0x12e
 946 048e 12       		.uleb128 0x12
 947 048f FD010000 		.4byte	.LASF33
 948 0493 FD010000 		.4byte	.LASF33
 949 0497 03       		.byte	0x3
 950 0498 3201     		.2byte	0x132
 951 049a 12       		.uleb128 0x12
 952 049b B5030000 		.4byte	.LASF34
 953 049f B5030000 		.4byte	.LASF34
 954 04a3 03       		.byte	0x3
 955 04a4 2601     		.2byte	0x126
ARM GAS  C:\Users\samue\AppData\Local\Temp\ccGYoRTw.s 			page 21


 956 04a6 13       		.uleb128 0x13
 957 04a7 8B030000 		.4byte	.LASF35
 958 04ab 8B030000 		.4byte	.LASF35
 959 04af 04       		.byte	0x4
 960 04b0 29       		.byte	0x29
 961 04b1 13       		.uleb128 0x13
 962 04b2 D5010000 		.4byte	.LASF36
 963 04b6 D5010000 		.4byte	.LASF36
 964 04ba 05       		.byte	0x5
 965 04bb 29       		.byte	0x29
 966 04bc 13       		.uleb128 0x13
 967 04bd E1030000 		.4byte	.LASF37
 968 04c1 E1030000 		.4byte	.LASF37
 969 04c5 06       		.byte	0x6
 970 04c6 29       		.byte	0x29
 971 04c7 13       		.uleb128 0x13
 972 04c8 81010000 		.4byte	.LASF38
 973 04cc 81010000 		.4byte	.LASF38
 974 04d0 07       		.byte	0x7
 975 04d1 25       		.byte	0x25
 976 04d2 13       		.uleb128 0x13
 977 04d3 00000000 		.4byte	.LASF39
 978 04d7 00000000 		.4byte	.LASF39
 979 04db 08       		.byte	0x8
 980 04dc B1       		.byte	0xb1
 981 04dd 13       		.uleb128 0x13
 982 04de 4C010000 		.4byte	.LASF40
 983 04e2 4C010000 		.4byte	.LASF40
 984 04e6 09       		.byte	0x9
 985 04e7 72       		.byte	0x72
 986 04e8 13       		.uleb128 0x13
 987 04e9 74010000 		.4byte	.LASF41
 988 04ed 74010000 		.4byte	.LASF41
 989 04f1 0A       		.byte	0xa
 990 04f2 72       		.byte	0x72
 991 04f3 13       		.uleb128 0x13
 992 04f4 A9010000 		.4byte	.LASF42
 993 04f8 A9010000 		.4byte	.LASF42
 994 04fc 07       		.byte	0x7
 995 04fd 57       		.byte	0x57
 996 04fe 13       		.uleb128 0x13
 997 04ff 0C000000 		.4byte	.LASF43
 998 0503 0C000000 		.4byte	.LASF43
 999 0507 08       		.byte	0x8
 1000 0508 B4       		.byte	0xb4
 1001 0509 13       		.uleb128 0x13
 1002 050a 45030000 		.4byte	.LASF44
 1003 050e 45030000 		.4byte	.LASF44
 1004 0512 08       		.byte	0x8
 1005 0513 B8       		.byte	0xb8
 1006 0514 13       		.uleb128 0x13
 1007 0515 FC000000 		.4byte	.LASF45
 1008 0519 FC000000 		.4byte	.LASF45
 1009 051d 08       		.byte	0x8
 1010 051e BA       		.byte	0xba
 1011 051f 13       		.uleb128 0x13
 1012 0520 1B010000 		.4byte	.LASF46
ARM GAS  C:\Users\samue\AppData\Local\Temp\ccGYoRTw.s 			page 22


 1013 0524 1B010000 		.4byte	.LASF46
 1014 0528 08       		.byte	0x8
 1015 0529 B5       		.byte	0xb5
 1016 052a 13       		.uleb128 0x13
 1017 052b 24000000 		.4byte	.LASF47
 1018 052f 24000000 		.4byte	.LASF47
 1019 0533 0B       		.byte	0xb
 1020 0534 33       		.byte	0x33
 1021 0535 13       		.uleb128 0x13
 1022 0536 2E000000 		.4byte	.LASF48
 1023 053a 2E000000 		.4byte	.LASF48
 1024 053e 0C       		.byte	0xc
 1025 053f 37       		.byte	0x37
 1026 0540 13       		.uleb128 0x13
 1027 0541 99030000 		.4byte	.LASF49
 1028 0545 99030000 		.4byte	.LASF49
 1029 0549 0C       		.byte	0xc
 1030 054a 36       		.byte	0x36
 1031 054b 13       		.uleb128 0x13
 1032 054c 5B030000 		.4byte	.LASF50
 1033 0550 5B030000 		.4byte	.LASF50
 1034 0554 0D       		.byte	0xd
 1035 0555 30       		.byte	0x30
 1036 0556 13       		.uleb128 0x13
 1037 0557 58010000 		.4byte	.LASF51
 1038 055b 58010000 		.4byte	.LASF51
 1039 055f 0D       		.byte	0xd
 1040 0560 32       		.byte	0x32
 1041 0561 13       		.uleb128 0x13
 1042 0562 18020000 		.4byte	.LASF52
 1043 0566 18020000 		.4byte	.LASF52
 1044 056a 0E       		.byte	0xe
 1045 056b E7       		.byte	0xe7
 1046 056c 12       		.uleb128 0x12
 1047 056d B2020000 		.4byte	.LASF53
 1048 0571 B2020000 		.4byte	.LASF53
 1049 0575 0F       		.byte	0xf
 1050 0576 2A03     		.2byte	0x32a
 1051 0578 14       		.uleb128 0x14
 1052 0579 F5000000 		.4byte	.LASF62
 1053 057d F5000000 		.4byte	.LASF62
 1054 0581 13       		.uleb128 0x13
 1055 0582 7E030000 		.4byte	.LASF54
 1056 0586 7E030000 		.4byte	.LASF54
 1057 058a 0C       		.byte	0xc
 1058 058b 38       		.byte	0x38
 1059 058c 13       		.uleb128 0x13
 1060 058d AD030000 		.4byte	.LASF55
 1061 0591 AD030000 		.4byte	.LASF55
 1062 0595 10       		.byte	0x10
 1063 0596 EC       		.byte	0xec
 1064 0597 00       		.byte	0
 1065              		.section	.debug_abbrev,"",%progbits
 1066              	.Ldebug_abbrev0:
 1067 0000 01       		.uleb128 0x1
 1068 0001 11       		.uleb128 0x11
 1069 0002 01       		.byte	0x1
ARM GAS  C:\Users\samue\AppData\Local\Temp\ccGYoRTw.s 			page 23


 1070 0003 25       		.uleb128 0x25
 1071 0004 0E       		.uleb128 0xe
 1072 0005 13       		.uleb128 0x13
 1073 0006 0B       		.uleb128 0xb
 1074 0007 03       		.uleb128 0x3
 1075 0008 0E       		.uleb128 0xe
 1076 0009 1B       		.uleb128 0x1b
 1077 000a 0E       		.uleb128 0xe
 1078 000b 55       		.uleb128 0x55
 1079 000c 17       		.uleb128 0x17
 1080 000d 11       		.uleb128 0x11
 1081 000e 01       		.uleb128 0x1
 1082 000f 10       		.uleb128 0x10
 1083 0010 17       		.uleb128 0x17
 1084 0011 00       		.byte	0
 1085 0012 00       		.byte	0
 1086 0013 02       		.uleb128 0x2
 1087 0014 24       		.uleb128 0x24
 1088 0015 00       		.byte	0
 1089 0016 0B       		.uleb128 0xb
 1090 0017 0B       		.uleb128 0xb
 1091 0018 3E       		.uleb128 0x3e
 1092 0019 0B       		.uleb128 0xb
 1093 001a 03       		.uleb128 0x3
 1094 001b 0E       		.uleb128 0xe
 1095 001c 00       		.byte	0
 1096 001d 00       		.byte	0
 1097 001e 03       		.uleb128 0x3
 1098 001f 24       		.uleb128 0x24
 1099 0020 00       		.byte	0
 1100 0021 0B       		.uleb128 0xb
 1101 0022 0B       		.uleb128 0xb
 1102 0023 3E       		.uleb128 0x3e
 1103 0024 0B       		.uleb128 0xb
 1104 0025 03       		.uleb128 0x3
 1105 0026 08       		.uleb128 0x8
 1106 0027 00       		.byte	0
 1107 0028 00       		.byte	0
 1108 0029 04       		.uleb128 0x4
 1109 002a 16       		.uleb128 0x16
 1110 002b 00       		.byte	0
 1111 002c 03       		.uleb128 0x3
 1112 002d 0E       		.uleb128 0xe
 1113 002e 3A       		.uleb128 0x3a
 1114 002f 0B       		.uleb128 0xb
 1115 0030 3B       		.uleb128 0x3b
 1116 0031 05       		.uleb128 0x5
 1117 0032 49       		.uleb128 0x49
 1118 0033 13       		.uleb128 0x13
 1119 0034 00       		.byte	0
 1120 0035 00       		.byte	0
 1121 0036 05       		.uleb128 0x5
 1122 0037 2E       		.uleb128 0x2e
 1123 0038 01       		.byte	0x1
 1124 0039 3F       		.uleb128 0x3f
 1125 003a 19       		.uleb128 0x19
 1126 003b 03       		.uleb128 0x3
ARM GAS  C:\Users\samue\AppData\Local\Temp\ccGYoRTw.s 			page 24


 1127 003c 0E       		.uleb128 0xe
 1128 003d 3A       		.uleb128 0x3a
 1129 003e 0B       		.uleb128 0xb
 1130 003f 3B       		.uleb128 0x3b
 1131 0040 0B       		.uleb128 0xb
 1132 0041 27       		.uleb128 0x27
 1133 0042 19       		.uleb128 0x19
 1134 0043 49       		.uleb128 0x49
 1135 0044 13       		.uleb128 0x13
 1136 0045 11       		.uleb128 0x11
 1137 0046 01       		.uleb128 0x1
 1138 0047 12       		.uleb128 0x12
 1139 0048 06       		.uleb128 0x6
 1140 0049 40       		.uleb128 0x40
 1141 004a 18       		.uleb128 0x18
 1142 004b 9742     		.uleb128 0x2117
 1143 004d 19       		.uleb128 0x19
 1144 004e 01       		.uleb128 0x1
 1145 004f 13       		.uleb128 0x13
 1146 0050 00       		.byte	0
 1147 0051 00       		.byte	0
 1148 0052 06       		.uleb128 0x6
 1149 0053 05       		.uleb128 0x5
 1150 0054 00       		.byte	0
 1151 0055 03       		.uleb128 0x3
 1152 0056 0E       		.uleb128 0xe
 1153 0057 3A       		.uleb128 0x3a
 1154 0058 0B       		.uleb128 0xb
 1155 0059 3B       		.uleb128 0x3b
 1156 005a 0B       		.uleb128 0xb
 1157 005b 49       		.uleb128 0x49
 1158 005c 13       		.uleb128 0x13
 1159 005d 02       		.uleb128 0x2
 1160 005e 17       		.uleb128 0x17
 1161 005f 00       		.byte	0
 1162 0060 00       		.byte	0
 1163 0061 07       		.uleb128 0x7
 1164 0062 34       		.uleb128 0x34
 1165 0063 00       		.byte	0
 1166 0064 03       		.uleb128 0x3
 1167 0065 0E       		.uleb128 0xe
 1168 0066 3A       		.uleb128 0x3a
 1169 0067 0B       		.uleb128 0xb
 1170 0068 3B       		.uleb128 0x3b
 1171 0069 0B       		.uleb128 0xb
 1172 006a 49       		.uleb128 0x49
 1173 006b 13       		.uleb128 0x13
 1174 006c 02       		.uleb128 0x2
 1175 006d 18       		.uleb128 0x18
 1176 006e 00       		.byte	0
 1177 006f 00       		.byte	0
 1178 0070 08       		.uleb128 0x8
 1179 0071 01       		.uleb128 0x1
 1180 0072 01       		.byte	0x1
 1181 0073 49       		.uleb128 0x49
 1182 0074 13       		.uleb128 0x13
 1183 0075 01       		.uleb128 0x1
ARM GAS  C:\Users\samue\AppData\Local\Temp\ccGYoRTw.s 			page 25


 1184 0076 13       		.uleb128 0x13
 1185 0077 00       		.byte	0
 1186 0078 00       		.byte	0
 1187 0079 09       		.uleb128 0x9
 1188 007a 21       		.uleb128 0x21
 1189 007b 00       		.byte	0
 1190 007c 49       		.uleb128 0x49
 1191 007d 13       		.uleb128 0x13
 1192 007e 2F       		.uleb128 0x2f
 1193 007f 0B       		.uleb128 0xb
 1194 0080 00       		.byte	0
 1195 0081 00       		.byte	0
 1196 0082 0A       		.uleb128 0xa
 1197 0083 2E       		.uleb128 0x2e
 1198 0084 01       		.byte	0x1
 1199 0085 3F       		.uleb128 0x3f
 1200 0086 19       		.uleb128 0x19
 1201 0087 03       		.uleb128 0x3
 1202 0088 0E       		.uleb128 0xe
 1203 0089 3A       		.uleb128 0x3a
 1204 008a 0B       		.uleb128 0xb
 1205 008b 3B       		.uleb128 0x3b
 1206 008c 0B       		.uleb128 0xb
 1207 008d 27       		.uleb128 0x27
 1208 008e 19       		.uleb128 0x19
 1209 008f 49       		.uleb128 0x49
 1210 0090 13       		.uleb128 0x13
 1211 0091 8701     		.uleb128 0x87
 1212 0093 19       		.uleb128 0x19
 1213 0094 11       		.uleb128 0x11
 1214 0095 01       		.uleb128 0x1
 1215 0096 12       		.uleb128 0x12
 1216 0097 06       		.uleb128 0x6
 1217 0098 40       		.uleb128 0x40
 1218 0099 18       		.uleb128 0x18
 1219 009a 9642     		.uleb128 0x2116
 1220 009c 19       		.uleb128 0x19
 1221 009d 01       		.uleb128 0x1
 1222 009e 13       		.uleb128 0x13
 1223 009f 00       		.byte	0
 1224 00a0 00       		.byte	0
 1225 00a1 0B       		.uleb128 0xb
 1226 00a2 34       		.uleb128 0x34
 1227 00a3 00       		.byte	0
 1228 00a4 03       		.uleb128 0x3
 1229 00a5 0E       		.uleb128 0xe
 1230 00a6 3A       		.uleb128 0x3a
 1231 00a7 0B       		.uleb128 0xb
 1232 00a8 3B       		.uleb128 0x3b
 1233 00a9 0B       		.uleb128 0xb
 1234 00aa 49       		.uleb128 0x49
 1235 00ab 13       		.uleb128 0x13
 1236 00ac 02       		.uleb128 0x2
 1237 00ad 17       		.uleb128 0x17
 1238 00ae 00       		.byte	0
 1239 00af 00       		.byte	0
 1240 00b0 0C       		.uleb128 0xc
ARM GAS  C:\Users\samue\AppData\Local\Temp\ccGYoRTw.s 			page 26


 1241 00b1 34       		.uleb128 0x34
 1242 00b2 00       		.byte	0
 1243 00b3 03       		.uleb128 0x3
 1244 00b4 08       		.uleb128 0x8
 1245 00b5 3A       		.uleb128 0x3a
 1246 00b6 0B       		.uleb128 0xb
 1247 00b7 3B       		.uleb128 0x3b
 1248 00b8 0B       		.uleb128 0xb
 1249 00b9 49       		.uleb128 0x49
 1250 00ba 13       		.uleb128 0x13
 1251 00bb 02       		.uleb128 0x2
 1252 00bc 17       		.uleb128 0x17
 1253 00bd 00       		.byte	0
 1254 00be 00       		.byte	0
 1255 00bf 0D       		.uleb128 0xd
 1256 00c0 898201   		.uleb128 0x4109
 1257 00c3 01       		.byte	0x1
 1258 00c4 11       		.uleb128 0x11
 1259 00c5 01       		.uleb128 0x1
 1260 00c6 31       		.uleb128 0x31
 1261 00c7 13       		.uleb128 0x13
 1262 00c8 01       		.uleb128 0x1
 1263 00c9 13       		.uleb128 0x13
 1264 00ca 00       		.byte	0
 1265 00cb 00       		.byte	0
 1266 00cc 0E       		.uleb128 0xe
 1267 00cd 8A8201   		.uleb128 0x410a
 1268 00d0 00       		.byte	0
 1269 00d1 02       		.uleb128 0x2
 1270 00d2 18       		.uleb128 0x18
 1271 00d3 9142     		.uleb128 0x2111
 1272 00d5 18       		.uleb128 0x18
 1273 00d6 00       		.byte	0
 1274 00d7 00       		.byte	0
 1275 00d8 0F       		.uleb128 0xf
 1276 00d9 898201   		.uleb128 0x4109
 1277 00dc 00       		.byte	0
 1278 00dd 11       		.uleb128 0x11
 1279 00de 01       		.uleb128 0x1
 1280 00df 31       		.uleb128 0x31
 1281 00e0 13       		.uleb128 0x13
 1282 00e1 00       		.byte	0
 1283 00e2 00       		.byte	0
 1284 00e3 10       		.uleb128 0x10
 1285 00e4 898201   		.uleb128 0x4109
 1286 00e7 01       		.byte	0x1
 1287 00e8 11       		.uleb128 0x11
 1288 00e9 01       		.uleb128 0x1
 1289 00ea 31       		.uleb128 0x31
 1290 00eb 13       		.uleb128 0x13
 1291 00ec 00       		.byte	0
 1292 00ed 00       		.byte	0
 1293 00ee 11       		.uleb128 0x11
 1294 00ef 34       		.uleb128 0x34
 1295 00f0 00       		.byte	0
 1296 00f1 03       		.uleb128 0x3
 1297 00f2 0E       		.uleb128 0xe
ARM GAS  C:\Users\samue\AppData\Local\Temp\ccGYoRTw.s 			page 27


 1298 00f3 3A       		.uleb128 0x3a
 1299 00f4 0B       		.uleb128 0xb
 1300 00f5 3B       		.uleb128 0x3b
 1301 00f6 0B       		.uleb128 0xb
 1302 00f7 49       		.uleb128 0x49
 1303 00f8 13       		.uleb128 0x13
 1304 00f9 3F       		.uleb128 0x3f
 1305 00fa 19       		.uleb128 0x19
 1306 00fb 02       		.uleb128 0x2
 1307 00fc 18       		.uleb128 0x18
 1308 00fd 00       		.byte	0
 1309 00fe 00       		.byte	0
 1310 00ff 12       		.uleb128 0x12
 1311 0100 2E       		.uleb128 0x2e
 1312 0101 00       		.byte	0
 1313 0102 3F       		.uleb128 0x3f
 1314 0103 19       		.uleb128 0x19
 1315 0104 3C       		.uleb128 0x3c
 1316 0105 19       		.uleb128 0x19
 1317 0106 6E       		.uleb128 0x6e
 1318 0107 0E       		.uleb128 0xe
 1319 0108 03       		.uleb128 0x3
 1320 0109 0E       		.uleb128 0xe
 1321 010a 3A       		.uleb128 0x3a
 1322 010b 0B       		.uleb128 0xb
 1323 010c 3B       		.uleb128 0x3b
 1324 010d 05       		.uleb128 0x5
 1325 010e 00       		.byte	0
 1326 010f 00       		.byte	0
 1327 0110 13       		.uleb128 0x13
 1328 0111 2E       		.uleb128 0x2e
 1329 0112 00       		.byte	0
 1330 0113 3F       		.uleb128 0x3f
 1331 0114 19       		.uleb128 0x19
 1332 0115 3C       		.uleb128 0x3c
 1333 0116 19       		.uleb128 0x19
 1334 0117 6E       		.uleb128 0x6e
 1335 0118 0E       		.uleb128 0xe
 1336 0119 03       		.uleb128 0x3
 1337 011a 0E       		.uleb128 0xe
 1338 011b 3A       		.uleb128 0x3a
 1339 011c 0B       		.uleb128 0xb
 1340 011d 3B       		.uleb128 0x3b
 1341 011e 0B       		.uleb128 0xb
 1342 011f 00       		.byte	0
 1343 0120 00       		.byte	0
 1344 0121 14       		.uleb128 0x14
 1345 0122 2E       		.uleb128 0x2e
 1346 0123 00       		.byte	0
 1347 0124 3F       		.uleb128 0x3f
 1348 0125 19       		.uleb128 0x19
 1349 0126 3C       		.uleb128 0x3c
 1350 0127 19       		.uleb128 0x19
 1351 0128 6E       		.uleb128 0x6e
 1352 0129 0E       		.uleb128 0xe
 1353 012a 03       		.uleb128 0x3
 1354 012b 0E       		.uleb128 0xe
ARM GAS  C:\Users\samue\AppData\Local\Temp\ccGYoRTw.s 			page 28


 1355 012c 00       		.byte	0
 1356 012d 00       		.byte	0
 1357 012e 00       		.byte	0
 1358              		.section	.debug_loc,"",%progbits
 1359              	.Ldebug_loc0:
 1360              	.LLST0:
 1361 0000 00000000 		.4byte	.LVL0
 1362 0004 02000000 		.4byte	.LVL1
 1363 0008 0100     		.2byte	0x1
 1364 000a 50       		.byte	0x50
 1365 000b 02000000 		.4byte	.LVL1
 1366 000f 24000000 		.4byte	.LVL2
 1367 0013 0100     		.2byte	0x1
 1368 0015 50       		.byte	0x50
 1369 0016 24000000 		.4byte	.LVL2
 1370 001a 48000000 		.4byte	.LFE34
 1371 001e 0600     		.2byte	0x6
 1372 0020 F3       		.byte	0xf3
 1373 0021 01       		.uleb128 0x1
 1374 0022 50       		.byte	0x50
 1375 0023 38       		.byte	0x38
 1376 0024 24       		.byte	0x24
 1377 0025 9F       		.byte	0x9f
 1378 0026 00000000 		.4byte	0
 1379 002a 00000000 		.4byte	0
 1380              	.LLST1:
 1381 002e 00000000 		.4byte	.LVL0
 1382 0032 30000000 		.4byte	.LVL3
 1383 0036 0100     		.2byte	0x1
 1384 0038 51       		.byte	0x51
 1385 0039 30000000 		.4byte	.LVL3
 1386 003d 48000000 		.4byte	.LFE34
 1387 0041 0400     		.2byte	0x4
 1388 0043 F3       		.byte	0xf3
 1389 0044 01       		.uleb128 0x1
 1390 0045 51       		.byte	0x51
 1391 0046 9F       		.byte	0x9f
 1392 0047 00000000 		.4byte	0
 1393 004b 00000000 		.4byte	0
 1394              	.LLST2:
 1395 004f A4000000 		.4byte	.LVL40
 1396 0053 A7000000 		.4byte	.LVL41-1
 1397 0057 0100     		.2byte	0x1
 1398 0059 50       		.byte	0x50
 1399 005a A7000000 		.4byte	.LVL41-1
 1400 005e AA000000 		.4byte	.LVL42
 1401 0062 0100     		.2byte	0x1
 1402 0064 57       		.byte	0x57
 1403 0065 AA000000 		.4byte	.LVL42
 1404 0069 AF000000 		.4byte	.LVL43-1
 1405 006d 0100     		.2byte	0x1
 1406 006f 50       		.byte	0x50
 1407 0070 AF000000 		.4byte	.LVL43-1
 1408 0074 B0000000 		.4byte	.LVL43
 1409 0078 0600     		.2byte	0x6
 1410 007a 77       		.byte	0x77
 1411 007b 00       		.sleb128 0
ARM GAS  C:\Users\samue\AppData\Local\Temp\ccGYoRTw.s 			page 29


 1412 007c 76       		.byte	0x76
 1413 007d 00       		.sleb128 0
 1414 007e 1C       		.byte	0x1c
 1415 007f 9F       		.byte	0x9f
 1416 0080 B0000000 		.4byte	.LVL43
 1417 0084 B2000000 		.4byte	.LVL44
 1418 0088 0100     		.2byte	0x1
 1419 008a 50       		.byte	0x50
 1420 008b 00000000 		.4byte	0
 1421 008f 00000000 		.4byte	0
 1422              	.LLST3:
 1423 0093 7A000000 		.4byte	.LVL30
 1424 0097 7D000000 		.4byte	.LVL31-1
 1425 009b 0100     		.2byte	0x1
 1426 009d 50       		.byte	0x50
 1427 009e 7D000000 		.4byte	.LVL31-1
 1428 00a2 80000000 		.4byte	.LVL32
 1429 00a6 0100     		.2byte	0x1
 1430 00a8 57       		.byte	0x57
 1431 00a9 80000000 		.4byte	.LVL32
 1432 00ad 85000000 		.4byte	.LVL33-1
 1433 00b1 0100     		.2byte	0x1
 1434 00b3 50       		.byte	0x50
 1435 00b4 85000000 		.4byte	.LVL33-1
 1436 00b8 88000000 		.4byte	.LVL34
 1437 00bc 0600     		.2byte	0x6
 1438 00be 77       		.byte	0x77
 1439 00bf 00       		.sleb128 0
 1440 00c0 76       		.byte	0x76
 1441 00c1 00       		.sleb128 0
 1442 00c2 1C       		.byte	0x1c
 1443 00c3 9F       		.byte	0x9f
 1444 00c4 88000000 		.4byte	.LVL34
 1445 00c8 8E000000 		.4byte	.LVL35
 1446 00cc 0100     		.2byte	0x1
 1447 00ce 50       		.byte	0x50
 1448 00cf 8E000000 		.4byte	.LVL35
 1449 00d3 00010000 		.4byte	.LVL58
 1450 00d7 0300     		.2byte	0x3
 1451 00d9 91       		.byte	0x91
 1452 00da A47F     		.sleb128 -92
 1453 00dc 00000000 		.4byte	0
 1454 00e0 00000000 		.4byte	0
 1455              	.LLST4:
 1456 00e4 4A000000 		.4byte	.LVL20
 1457 00e8 4D000000 		.4byte	.LVL21-1
 1458 00ec 0100     		.2byte	0x1
 1459 00ee 50       		.byte	0x50
 1460 00ef 4D000000 		.4byte	.LVL21-1
 1461 00f3 30010000 		.4byte	.LFE35
 1462 00f7 0100     		.2byte	0x1
 1463 00f9 56       		.byte	0x56
 1464 00fa 00000000 		.4byte	0
 1465 00fe 00000000 		.4byte	0
 1466              	.LLST5:
 1467 0102 BC000000 		.4byte	.LVL45
 1468 0106 BF000000 		.4byte	.LVL46-1
ARM GAS  C:\Users\samue\AppData\Local\Temp\ccGYoRTw.s 			page 30


 1469 010a 0100     		.2byte	0x1
 1470 010c 50       		.byte	0x50
 1471 010d 00000000 		.4byte	0
 1472 0111 00000000 		.4byte	0
 1473              	.LLST6:
 1474 0115 C2000000 		.4byte	.LVL47
 1475 0119 C7000000 		.4byte	.LVL48-1
 1476 011d 0100     		.2byte	0x1
 1477 011f 50       		.byte	0x50
 1478 0120 00000000 		.4byte	0
 1479 0124 00000000 		.4byte	0
 1480              	.LLST7:
 1481 0128 CA000000 		.4byte	.LVL49
 1482 012c F1000000 		.4byte	.LVL55-1
 1483 0130 0100     		.2byte	0x1
 1484 0132 53       		.byte	0x53
 1485 0133 00000000 		.4byte	0
 1486 0137 00000000 		.4byte	0
 1487              	.LLST8:
 1488 013b D0000000 		.4byte	.LVL50
 1489 013f D4000000 		.4byte	.LVL51
 1490 0143 0600     		.2byte	0x6
 1491 0145 75       		.byte	0x75
 1492 0146 00       		.sleb128 0
 1493 0147 71       		.byte	0x71
 1494 0148 00       		.sleb128 0
 1495 0149 22       		.byte	0x22
 1496 014a 9F       		.byte	0x9f
 1497 014b D4000000 		.4byte	.LVL51
 1498 014f EC000000 		.4byte	.LVL54
 1499 0153 0100     		.2byte	0x1
 1500 0155 51       		.byte	0x51
 1501 0156 EC000000 		.4byte	.LVL54
 1502 015a F1000000 		.4byte	.LVL55-1
 1503 015e 0200     		.2byte	0x2
 1504 0160 7D       		.byte	0x7d
 1505 0161 00       		.sleb128 0
 1506 0162 00000000 		.4byte	0
 1507 0166 00000000 		.4byte	0
 1508              	.LLST9:
 1509 016a 04000000 		.4byte	.LVL5
 1510 016e 4E000000 		.4byte	.LVL21
 1511 0172 0200     		.2byte	0x2
 1512 0174 30       		.byte	0x30
 1513 0175 9F       		.byte	0x9f
 1514 0176 5C000000 		.4byte	.LVL24
 1515 017a 60000000 		.4byte	.LVL25
 1516 017e 0200     		.2byte	0x2
 1517 0180 30       		.byte	0x30
 1518 0181 9F       		.byte	0x9f
 1519 0182 60000000 		.4byte	.LVL25
 1520 0186 30010000 		.4byte	.LFE35
 1521 018a 0100     		.2byte	0x1
 1522 018c 54       		.byte	0x54
 1523 018d 00000000 		.4byte	0
 1524 0191 00000000 		.4byte	0
 1525              	.LLST10:
ARM GAS  C:\Users\samue\AppData\Local\Temp\ccGYoRTw.s 			page 31


 1526 0195 E6000000 		.4byte	.LVL53
 1527 0199 F1000000 		.4byte	.LVL55-1
 1528 019d 0100     		.2byte	0x1
 1529 019f 52       		.byte	0x52
 1530 01a0 F1000000 		.4byte	.LVL55-1
 1531 01a4 00010000 		.4byte	.LVL58
 1532 01a8 0C00     		.2byte	0xc
 1533 01aa 74       		.byte	0x74
 1534 01ab 00       		.sleb128 0
 1535 01ac 4F       		.byte	0x4f
 1536 01ad 25       		.byte	0x25
 1537 01ae 74       		.byte	0x74
 1538 01af 00       		.sleb128 0
 1539 01b0 22       		.byte	0x22
 1540 01b1 31       		.byte	0x31
 1541 01b2 26       		.byte	0x26
 1542 01b3 23       		.byte	0x23
 1543 01b4 01       		.uleb128 0x1
 1544 01b5 9F       		.byte	0x9f
 1545 01b6 00000000 		.4byte	0
 1546 01ba 00000000 		.4byte	0
 1547              		.section	.debug_aranges,"",%progbits
 1548 0000 24000000 		.4byte	0x24
 1549 0004 0200     		.2byte	0x2
 1550 0006 00000000 		.4byte	.Ldebug_info0
 1551 000a 04       		.byte	0x4
 1552 000b 00       		.byte	0
 1553 000c 0000     		.2byte	0
 1554 000e 0000     		.2byte	0
 1555 0010 00000000 		.4byte	.LFB34
 1556 0014 48000000 		.4byte	.LFE34-.LFB34
 1557 0018 00000000 		.4byte	.LFB35
 1558 001c 30010000 		.4byte	.LFE35-.LFB35
 1559 0020 00000000 		.4byte	0
 1560 0024 00000000 		.4byte	0
 1561              		.section	.debug_ranges,"",%progbits
 1562              	.Ldebug_ranges0:
 1563 0000 00000000 		.4byte	.LFB34
 1564 0004 48000000 		.4byte	.LFE34
 1565 0008 00000000 		.4byte	.LFB35
 1566 000c 30010000 		.4byte	.LFE35
 1567 0010 00000000 		.4byte	0
 1568 0014 00000000 		.4byte	0
 1569              		.section	.debug_line,"",%progbits
 1570              	.Ldebug_line0:
 1571 0000 F1010000 		.section	.debug_str,"MS",%progbits,1
 1571      02006001 
 1571      00000201 
 1571      FB0E0D00 
 1571      01010101 
 1572              	.LASF39:
 1573 0000 4144435F 		.ascii	"ADC_1_Start\000"
 1573      315F5374 
 1573      61727400 
 1574              	.LASF43:
 1575 000c 4144435F 		.ascii	"ADC_1_StartConvert\000"
 1575      315F5374 
ARM GAS  C:\Users\samue\AppData\Local\Temp\ccGYoRTw.s 			page 32


 1575      61727443 
 1575      6F6E7665 
 1575      727400
 1576              	.LASF25:
 1577 001f 72657354 		.ascii	"resT\000"
 1577      00
 1578              	.LASF47:
 1579 0024 4C45445F 		.ascii	"LED_Write\000"
 1579      57726974 
 1579      6500
 1580              	.LASF48:
 1581 002e 50567265 		.ascii	"PVref_1_Start\000"
 1581      665F315F 
 1581      53746172 
 1581      7400
 1582              	.LASF26:
 1583 003c 74656D70 		.ascii	"temp\000"
 1583      00
 1584              	.LASF2:
 1585 0041 73686F72 		.ascii	"short int\000"
 1585      7420696E 
 1585      7400
 1586              	.LASF17:
 1587 004b 73697A65 		.ascii	"sizetype\000"
 1587      74797065 
 1587      00
 1588              	.LASF56:
 1589 0054 474E5520 		.ascii	"GNU C11 5.4.1 20160609 (release) [ARM/embedded-5-br"
 1589      43313120 
 1589      352E342E 
 1589      31203230 
 1589      31363036 
 1590 0087 616E6368 		.ascii	"anch revision 237715] -mcpu=cortex-m0plus -mthumb -"
 1590      20726576 
 1590      6973696F 
 1590      6E203233 
 1590      37373135 
 1591 00ba 67202D4F 		.ascii	"g -Og -ffunction-sections -ffat-lto-objects\000"
 1591      67202D66 
 1591      66756E63 
 1591      74696F6E 
 1591      2D736563 
 1592              	.LASF18:
 1593 00e6 41444353 		.ascii	"ADCSample\000"
 1593      616D706C 
 1593      6500
 1594              	.LASF60:
 1595 00f0 6D61696E 		.ascii	"main\000"
 1595      00
 1596              	.LASF62:
 1597 00f5 6D656D63 		.ascii	"memcpy\000"
 1597      707900
 1598              	.LASF45:
 1599 00fc 4144435F 		.ascii	"ADC_1_GetResult32\000"
 1599      315F4765 
 1599      74526573 
 1599      756C7433 
ARM GAS  C:\Users\samue\AppData\Local\Temp\ccGYoRTw.s 			page 33


 1599      3200
 1600              	.LASF59:
 1601 010e 46696C74 		.ascii	"FilterSignal\000"
 1601      65725369 
 1601      676E616C 
 1601      00
 1602              	.LASF46:
 1603 011b 4144435F 		.ascii	"ADC_1_StopConvert\000"
 1603      315F5374 
 1603      6F70436F 
 1603      6E766572 
 1603      7400
 1604              	.LASF11:
 1605 012d 696E7431 		.ascii	"int16\000"
 1605      3600
 1606              	.LASF24:
 1607 0133 6164634F 		.ascii	"adcOffset\000"
 1607      66667365 
 1607      7400
 1608              	.LASF9:
 1609 013d 75696E74 		.ascii	"uint8\000"
 1609      3800
 1610              	.LASF28:
 1611 0143 66726163 		.ascii	"fracTemp\000"
 1611      54656D70 
 1611      00
 1612              	.LASF40:
 1613 014c 4932435F 		.ascii	"I2C_1_Start\000"
 1613      315F5374 
 1613      61727400 
 1614              	.LASF51:
 1615 0158 54686572 		.ascii	"Thermistor_1_GetTemperature\000"
 1615      6D697374 
 1615      6F725F31 
 1615      5F476574 
 1615      54656D70 
 1616              	.LASF41:
 1617 0174 55415254 		.ascii	"UART_1_Start\000"
 1617      5F315F53 
 1617      74617274 
 1617      00
 1618              	.LASF38:
 1619 0181 414D7578 		.ascii	"AMux_1_Start\000"
 1619      5F315F53 
 1619      74617274 
 1619      00
 1620              	.LASF13:
 1621 018e 666C6F61 		.ascii	"float\000"
 1621      7400
 1622              	.LASF23:
 1623 0194 76746865 		.ascii	"vtherm\000"
 1623      726D00
 1624              	.LASF6:
 1625 019b 6C6F6E67 		.ascii	"long long int\000"
 1625      206C6F6E 
 1625      6720696E 
 1625      7400
ARM GAS  C:\Users\samue\AppData\Local\Temp\ccGYoRTw.s 			page 34


 1626              	.LASF42:
 1627 01a9 414D7578 		.ascii	"AMux_1_Select\000"
 1627      5F315F53 
 1627      656C6563 
 1627      7400
 1628              	.LASF4:
 1629 01b7 6C6F6E67 		.ascii	"long int\000"
 1629      20696E74 
 1629      00
 1630              	.LASF61:
 1631 01c0 73747269 		.ascii	"string\000"
 1631      6E6700
 1632              	.LASF27:
 1633 01c7 64656354 		.ascii	"decTemp\000"
 1633      656D7000 
 1634              	.LASF31:
 1635 01cf 72644275 		.ascii	"rdBuf\000"
 1635      6600
 1636              	.LASF36:
 1637 01d5 4F70616D 		.ascii	"Opamp_2_Start\000"
 1637      705F325F 
 1637      53746172 
 1637      7400
 1638              	.LASF16:
 1639 01e3 6C6F6E67 		.ascii	"long double\000"
 1639      20646F75 
 1639      626C6500 
 1640              	.LASF1:
 1641 01ef 756E7369 		.ascii	"unsigned char\000"
 1641      676E6564 
 1641      20636861 
 1641      7200
 1642              	.LASF33:
 1643 01fd 4932435F 		.ascii	"I2C_1_I2CSlaveClearReadBuf\000"
 1643      315F4932 
 1643      43536C61 
 1643      7665436C 
 1643      65617252 
 1644              	.LASF52:
 1645 0218 73707269 		.ascii	"sprintf\000"
 1645      6E746600 
 1646              	.LASF0:
 1647 0220 7369676E 		.ascii	"signed char\000"
 1647      65642063 
 1647      68617200 
 1648              	.LASF7:
 1649 022c 6C6F6E67 		.ascii	"long long unsigned int\000"
 1649      206C6F6E 
 1649      6720756E 
 1649      7369676E 
 1649      65642069 
 1650              	.LASF8:
 1651 0243 756E7369 		.ascii	"unsigned int\000"
 1651      676E6564 
 1651      20696E74 
 1651      00
 1652              	.LASF3:
ARM GAS  C:\Users\samue\AppData\Local\Temp\ccGYoRTw.s 			page 35


 1653 0250 73686F72 		.ascii	"short unsigned int\000"
 1653      7420756E 
 1653      7369676E 
 1653      65642069 
 1653      6E7400
 1654              	.LASF29:
 1655 0263 6368616E 		.ascii	"chan\000"
 1655      00
 1656              	.LASF15:
 1657 0268 63686172 		.ascii	"char\000"
 1657      00
 1658              	.LASF19:
 1659 026d 6368616E 		.ascii	"channel\000"
 1659      6E656C00 
 1660              	.LASF21:
 1661 0275 66696C56 		.ascii	"filValueRounded\000"
 1661      616C7565 
 1661      526F756E 
 1661      64656400 
 1662              	.LASF10:
 1663 0285 75696E74 		.ascii	"uint32\000"
 1663      333200
 1664              	.LASF57:
 1665 028c 6D61696E 		.ascii	"main.c\000"
 1665      2E6300
 1666              	.LASF5:
 1667 0293 6C6F6E67 		.ascii	"long unsigned int\000"
 1667      20756E73 
 1667      69676E65 
 1667      6420696E 
 1667      7400
 1668              	.LASF12:
 1669 02a5 696E7433 		.ascii	"int32\000"
 1669      3200
 1670              	.LASF14:
 1671 02ab 646F7562 		.ascii	"double\000"
 1671      6C6500
 1672              	.LASF53:
 1673 02b2 55415254 		.ascii	"UART_1_UartPutString\000"
 1673      5F315F55 
 1673      61727450 
 1673      75745374 
 1673      72696E67 
 1674              	.LASF58:
 1675 02c7 433A5C55 		.ascii	"C:\\Users\\samue\\OneDrive\\Documents\\GitHub\\Li-C"
 1675      73657273 
 1675      5C73616D 
 1675      75655C4F 
 1675      6E654472 
 1676 02f4 656C6C54 		.ascii	"ellTesting_Script\\TJ Temperature Spatial Profile.c"
 1676      65737469 
 1676      6E675F53 
 1676      63726970 
 1676      745C544A 
 1677 0326 7964736E 		.ascii	"ydsn\000"
 1677      00
 1678              	.LASF32:
ARM GAS  C:\Users\samue\AppData\Local\Temp\ccGYoRTw.s 			page 36


 1679 032b 4932435F 		.ascii	"I2C_1_I2CSlaveInitReadBuf\000"
 1679      315F4932 
 1679      43536C61 
 1679      7665496E 
 1679      69745265 
 1680              	.LASF44:
 1681 0345 4144435F 		.ascii	"ADC_1_IsEndConversion\000"
 1681      315F4973 
 1681      456E6443 
 1681      6F6E7665 
 1681      7273696F 
 1682              	.LASF50:
 1683 035b 54686572 		.ascii	"Thermistor_1_GetResistance\000"
 1683      6D697374 
 1683      6F725F31 
 1683      5F476574 
 1683      52657369 
 1684              	.LASF30:
 1685 0376 74656D70 		.ascii	"tempArr\000"
 1685      41727200 
 1686              	.LASF54:
 1687 037e 50567265 		.ascii	"PVref_1_Stop\000"
 1687      665F315F 
 1687      53746F70 
 1687      00
 1688              	.LASF35:
 1689 038b 4F70616D 		.ascii	"Opamp_1_Start\000"
 1689      705F315F 
 1689      53746172 
 1689      7400
 1690              	.LASF49:
 1691 0399 50567265 		.ascii	"PVref_1_Enable\000"
 1691      665F315F 
 1691      456E6162 
 1691      6C6500
 1692              	.LASF22:
 1693 03a8 76726566 		.ascii	"vref\000"
 1693      00
 1694              	.LASF55:
 1695 03ad 43794465 		.ascii	"CyDelay\000"
 1695      6C617900 
 1696              	.LASF34:
 1697 03b5 4932435F 		.ascii	"I2C_1_I2CSlaveClearReadStatus\000"
 1697      315F4932 
 1697      43536C61 
 1697      7665436C 
 1697      65617252 
 1698              	.LASF20:
 1699 03d3 66696C74 		.ascii	"filteredValue\000"
 1699      65726564 
 1699      56616C75 
 1699      6500
 1700              	.LASF37:
 1701 03e1 4F70616D 		.ascii	"Opamp_3_Start\000"
 1701      705F335F 
 1701      53746172 
 1701      7400
ARM GAS  C:\Users\samue\AppData\Local\Temp\ccGYoRTw.s 			page 37


 1702              		.ident	"GCC: (GNU Tools for ARM Embedded Processors) 5.4.1 20160609 (release) [ARM/embedded-5-bran
