ARM GAS  C:\Users\cdrow\AppData\Local\Temp\ccEGBKO4.s 			page 1


   1              		.syntax unified
   2              		.cpu cortex-m0plus
   3              		.fpu softvfp
   4              		.eabi_attribute 20, 1
   5              		.eabi_attribute 21, 1
   6              		.eabi_attribute 23, 3
   7              		.eabi_attribute 24, 1
   8              		.eabi_attribute 25, 1
   9              		.eabi_attribute 26, 1
  10              		.eabi_attribute 30, 1
  11              		.eabi_attribute 34, 0
  12              		.eabi_attribute 18, 4
  13              		.thumb
  14              		.syntax unified
  15              		.file	"main.c"
  16              		.text
  17              	.Ltext0:
  18              		.cfi_sections	.debug_frame
  19              		.section	.text.FilterSignal,"ax",%progbits
  20              		.align	2
  21              		.global	FilterSignal
  22              		.code	16
  23              		.thumb_func
  24              		.type	FilterSignal, %function
  25              	FilterSignal:
  26              	.LFB34:
  27              		.file 1 "main.c"
   1:main.c        **** /* ========================================
   2:main.c        ****  *
   3:main.c        ****  * Christian Gonzalez, UC Davis, 2020
   4:main.c        ****  * All Rights Reserved
   5:main.c        ****  * UNPUBLISHED, LICENSED SOFTWARE.
   6:main.c        ****  * Whoops
   7:main.c        ****  *
   8:main.c        ****  * CONFIDENTIAL AND PROPRIETARY INFORMATION
   9:main.c        ****  * WHICH IS THE PROPERTY OF your company.
  10:main.c        ****  *
  11:main.c        ****  * ========================================
  12:main.c        **** */
  13:main.c        **** #include <project.h>
  14:main.c        **** #include <stdio.h>
  15:main.c        **** 
  16:main.c        **** int32 FilterSignal(int32 ADCSample, uint8 channel){
  28              		.loc 1 16 0
  29              		.cfi_startproc
  30              		@ args = 0, pretend = 0, frame = 0
  31              		@ frame_needed = 0, uses_anonymous_args = 0
  32              		@ link register save eliminated.
  33              	.LVL0:
  17:main.c        ****     
  18:main.c        **** 	/* Running filtered value accumulator */
  19:main.c        **** 	static int32 filteredValue[32] = {0,0};
  20:main.c        **** 	
  21:main.c        **** 	/* Filtered value rounded-off to 20-bits */
  22:main.c        **** 	int32 filValueRounded;
  23:main.c        **** 	
  24:main.c        **** 	/* Left shift input by MAX_FILTER_COEFF_SHIFT to allow divisions up to MAX_FILTER_COEFF_SHIFT */
ARM GAS  C:\Users\cdrow\AppData\Local\Temp\ccEGBKO4.s 			page 2


  25:main.c        **** 	ADCSample <<= 8;
  34              		.loc 1 25 0
  35 0000 0002     		lsls	r0, r0, #8
  36              	.LVL1:
  26:main.c        **** 	   
  27:main.c        **** 	/* Pass the filter input as it is for fast changes in input */
  28:main.c        ****     if((ADCSample > (filteredValue[channel] + (100*256))) || (ADCSample < (filteredValue[channel] -
  37              		.loc 1 28 0
  38 0002 8A00     		lsls	r2, r1, #2
  39 0004 0E4B     		ldr	r3, .L5
  40 0006 D358     		ldr	r3, [r2, r3]
  41 0008 C822     		movs	r2, #200
  42 000a D201     		lsls	r2, r2, #7
  43 000c 9A18     		adds	r2, r3, r2
  44 000e 9042     		cmp	r0, r2
  45 0010 03DC     		bgt	.L2
  46              		.loc 1 28 0 is_stmt 0 discriminator 1
  47 0012 0C4A     		ldr	r2, .L5+4
  48 0014 9A18     		adds	r2, r3, r2
  49 0016 9042     		cmp	r0, r2
  50 0018 03DA     		bge	.L3
  51              	.L2:
  29:main.c        ****         
  30:main.c        ****         filteredValue[channel] = ADCSample;
  52              		.loc 1 30 0 is_stmt 1
  53 001a 8B00     		lsls	r3, r1, #2
  54 001c 084A     		ldr	r2, .L5
  55 001e 9850     		str	r0, [r3, r2]
  56 0020 05E0     		b	.L4
  57              	.L3:
  31:main.c        ****         
  32:main.c        ****     }
  33:main.c        ****     
  34:main.c        ****     /* If not the first sample then based on filter coefficient, filter the input signal */
  35:main.c        ****     else{
  36:main.c        **** 		
  37:main.c        ****         /* IIR filter */
  38:main.c        **** 		filteredValue[channel] = filteredValue[channel] + ((ADCSample - filteredValue[channel]) >> 4);			
  58              		.loc 1 38 0
  59 0022 C01A     		subs	r0, r0, r3
  60              	.LVL2:
  61 0024 0011     		asrs	r0, r0, #4
  62 0026 1818     		adds	r0, r3, r0
  63 0028 8B00     		lsls	r3, r1, #2
  64 002a 054A     		ldr	r2, .L5
  65 002c 9850     		str	r0, [r3, r2]
  66              	.L4:
  39:main.c        ****         
  40:main.c        **** 	}
  41:main.c        **** 	
  42:main.c        **** 	/* Compensate filter result for  left shift of 8 and round off */
  43:main.c        **** 	filValueRounded = (filteredValue[channel] >> 8) + ((filteredValue[channel] & 0x00000080) >> 7);
  67              		.loc 1 43 0
  68 002e 8900     		lsls	r1, r1, #2
  69              	.LVL3:
  70 0030 034B     		ldr	r3, .L5
  71 0032 CB58     		ldr	r3, [r1, r3]
ARM GAS  C:\Users\cdrow\AppData\Local\Temp\ccEGBKO4.s 			page 3


  72 0034 1A12     		asrs	r2, r3, #8
  73 0036 DB11     		asrs	r3, r3, #7
  74 0038 0120     		movs	r0, #1
  75 003a 0340     		ands	r3, r0
  76 003c D018     		adds	r0, r2, r3
  77              	.LVL4:
  44:main.c        **** 	
  45:main.c        ****     return filValueRounded;
  46:main.c        **** }
  78              		.loc 1 46 0
  79              		@ sp needed
  80 003e 7047     		bx	lr
  81              	.L6:
  82              		.align	2
  83              	.L5:
  84 0040 00000000 		.word	.LANCHOR0
  85 0044 009CFFFF 		.word	-25600
  86              		.cfi_endproc
  87              	.LFE34:
  88              		.size	FilterSignal, .-FilterSignal
  89              		.section	.text.main,"ax",%progbits
  90              		.align	2
  91              		.global	main
  92              		.code	16
  93              		.thumb_func
  94              		.type	main, %function
  95              	main:
  96              	.LFB35:
  47:main.c        **** 
  48:main.c        **** /* Initialize string for UART data transmission */
  49:main.c        **** char string[16];
  50:main.c        **** 
  51:main.c        **** int main(void)
  52:main.c        **** {  
  97              		.loc 1 52 0
  98              		.cfi_startproc
  99              		@ args = 0, pretend = 0, frame = 72
 100              		@ frame_needed = 0, uses_anonymous_args = 0
 101 0000 F0B5     		push	{r4, r5, r6, r7, lr}
 102              		.cfi_def_cfa_offset 20
 103              		.cfi_offset 4, -20
 104              		.cfi_offset 5, -16
 105              		.cfi_offset 6, -12
 106              		.cfi_offset 7, -8
 107              		.cfi_offset 14, -4
 108 0002 95B0     		sub	sp, sp, #84
 109              		.cfi_def_cfa_offset 104
 110              	.LVL5:
  53:main.c        ****     /* Voltages across reference resistor and thermistor*/
  54:main.c        **** 	int32 vref;
  55:main.c        ****     int32 vtherm;
  56:main.c        ****     
  57:main.c        ****     /* ADC offset voltage through Correlated Double Sampling */
  58:main.c        ****     int32 adcOffset;
  59:main.c        **** 	
  60:main.c        **** 	/* Resistance of Thermistor */
  61:main.c        **** 	uint32 resT;
ARM GAS  C:\Users\cdrow\AppData\Local\Temp\ccEGBKO4.s 			page 4


  62:main.c        **** 	
  63:main.c        **** 	/* Temperature value in 100ths of a degree C */
  64:main.c        **** 	int16 temp; 
  65:main.c        **** 	
  66:main.c        ****     /*Decimal Temp */
  67:main.c        ****     int32 decTemp;
  68:main.c        ****     
  69:main.c        ****     /*Fractional Temp */
  70:main.c        ****     int32 fracTemp;
  71:main.c        ****     
  72:main.c        ****     /* Channel */
  73:main.c        ****     int32 chan = 0;
  74:main.c        ****     int32 i;
  75:main.c        ****     
  76:main.c        ****     /* Temperature Array */
  77:main.c        ****     uint8 tempArr[32];
  78:main.c        ****     
  79:main.c        ****     /* I2C Read Buffer */
  80:main.c        ****     uint8 rdBuf[32];
  81:main.c        ****     
  82:main.c        ****     /* Enable global interrupts. */
  83:main.c        ****     CyGlobalIntEnable;
 111              		.loc 1 83 0
 112              		.syntax divided
 113              	@ 83 "main.c" 1
 114 0004 62B6     		CPSIE   i
 115              	@ 0 "" 2
  84:main.c        ****     
  85:main.c        ****     /* Initialize I2C Buffer */
  86:main.c        ****     I2C_1_I2CSlaveInitReadBuf(rdBuf, 32);
 116              		.loc 1 86 0
 117              		.thumb
 118              		.syntax unified
 119 0006 2021     		movs	r1, #32
 120 0008 04A8     		add	r0, sp, #16
 121 000a FFF7FEFF 		bl	I2C_1_I2CSlaveInitReadBuf
 122              	.LVL6:
  87:main.c        ****     I2C_1_I2CSlaveClearReadBuf();
 123              		.loc 1 87 0
 124 000e FFF7FEFF 		bl	I2C_1_I2CSlaveClearReadBuf
 125              	.LVL7:
  88:main.c        ****     I2C_1_I2CSlaveClearReadStatus();
 126              		.loc 1 88 0
 127 0012 FFF7FEFF 		bl	I2C_1_I2CSlaveClearReadStatus
 128              	.LVL8:
  89:main.c        ****     
  90:main.c        ****     /* Initialize all PSoC components */
  91:main.c        ****     Opamp_1_Start();
 129              		.loc 1 91 0
 130 0016 FFF7FEFF 		bl	Opamp_1_Start
 131              	.LVL9:
  92:main.c        ****     Opamp_2_Start();
 132              		.loc 1 92 0
 133 001a FFF7FEFF 		bl	Opamp_2_Start
 134              	.LVL10:
  93:main.c        ****     Opamp_3_Start();
 135              		.loc 1 93 0
ARM GAS  C:\Users\cdrow\AppData\Local\Temp\ccEGBKO4.s 			page 5


 136 001e FFF7FEFF 		bl	Opamp_3_Start
 137              	.LVL11:
  94:main.c        ****     AMux_1_Start();
 138              		.loc 1 94 0
 139 0022 FFF7FEFF 		bl	AMux_1_Start
 140              	.LVL12:
  95:main.c        ****     ADC_1_Start();
 141              		.loc 1 95 0
 142 0026 FFF7FEFF 		bl	ADC_1_Start
 143              	.LVL13:
  96:main.c        ****     I2C_1_Start();
 144              		.loc 1 96 0
 145 002a FFF7FEFF 		bl	I2C_1_Start
 146              	.LVL14:
  97:main.c        ****     UART_1_Start(); 
 147              		.loc 1 97 0
 148 002e FFF7FEFF 		bl	UART_1_Start
 149              	.LVL15:
  98:main.c        ****     
  99:main.c        ****     // Read ADC offset voltage (CDS)   
 100:main.c        ****     AMux_1_Select(32);
 150              		.loc 1 100 0
 151 0032 2020     		movs	r0, #32
 152 0034 FFF7FEFF 		bl	AMux_1_Select
 153              	.LVL16:
 101:main.c        ****     ADC_1_StartConvert();
 154              		.loc 1 101 0
 155 0038 FFF7FEFF 		bl	ADC_1_StartConvert
 156              	.LVL17:
 102:main.c        ****     ADC_1_IsEndConversion(ADC_1_WAIT_FOR_RESULT);
 157              		.loc 1 102 0
 158 003c 0220     		movs	r0, #2
 159 003e FFF7FEFF 		bl	ADC_1_IsEndConversion
 160              	.LVL18:
 103:main.c        ****     adcOffset = ADC_1_GetResult32(0);
 161              		.loc 1 103 0
 162 0042 0020     		movs	r0, #0
 163 0044 FFF7FEFF 		bl	ADC_1_GetResult32
 164              	.LVL19:
 165 0048 0700     		movs	r7, r0
 166              	.LVL20:
 104:main.c        ****     ADC_1_StopConvert();
 167              		.loc 1 104 0
 168 004a FFF7FEFF 		bl	ADC_1_StopConvert
 169              	.LVL21:
 170              	.L10:
 105:main.c        ****         
 106:main.c        ****     for(;;)
 107:main.c        ****     {
 108:main.c        ****         LED_Write(1);
 171              		.loc 1 108 0
 172 004e 0120     		movs	r0, #1
 173 0050 FFF7FEFF 		bl	LED_Write
 174              	.LVL22:
 109:main.c        ****         /* Initialize Voltage Reference component separately to reduce error from self-heating in t
 110:main.c        ****         PVref_1_Start();
 175              		.loc 1 110 0
ARM GAS  C:\Users\cdrow\AppData\Local\Temp\ccEGBKO4.s 			page 6


 176 0054 FFF7FEFF 		bl	PVref_1_Start
 177              	.LVL23:
 111:main.c        ****         PVref_1_Enable();
 178              		.loc 1 111 0
 179 0058 FFF7FEFF 		bl	PVref_1_Enable
 180              	.LVL24:
 112:main.c        ****                         
 113:main.c        ****         /* Scan through MUX channels, get temperature and send data */
 114:main.c        ****         for(chan=0; chan<32; chan=chan+2){
 181              		.loc 1 114 0
 182 005c 0025     		movs	r5, #0
 183 005e 47E0     		b	.L8
 184              	.LVL25:
 185              	.L9:
 115:main.c        ****                       
 116:main.c        ****             AMux_1_Select(chan);
 186              		.loc 1 116 0
 187 0060 ECB2     		uxtb	r4, r5
 188 0062 2000     		movs	r0, r4
 189 0064 FFF7FEFF 		bl	AMux_1_Select
 190              	.LVL26:
 117:main.c        ****             ADC_1_StartConvert();
 191              		.loc 1 117 0
 192 0068 FFF7FEFF 		bl	ADC_1_StartConvert
 193              	.LVL27:
 118:main.c        ****             ADC_1_IsEndConversion(ADC_1_WAIT_FOR_RESULT);
 194              		.loc 1 118 0
 195 006c 0220     		movs	r0, #2
 196 006e FFF7FEFF 		bl	ADC_1_IsEndConversion
 197              	.LVL28:
 119:main.c        ****             vtherm = ADC_1_GetResult32(0);
 198              		.loc 1 119 0
 199 0072 0020     		movs	r0, #0
 200 0074 FFF7FEFF 		bl	ADC_1_GetResult32
 201              	.LVL29:
 202 0078 0600     		movs	r6, r0
 203              	.LVL30:
 120:main.c        ****             ADC_1_StopConvert();
 204              		.loc 1 120 0
 205 007a FFF7FEFF 		bl	ADC_1_StopConvert
 206              	.LVL31:
 121:main.c        ****             vtherm = vtherm - adcOffset;
 207              		.loc 1 121 0
 208 007e F01B     		subs	r0, r6, r7
 209              	.LVL32:
 122:main.c        ****             
 123:main.c        ****             /* IIR Filter for vtherm */
 124:main.c        ****             vtherm = FilterSignal(vtherm, chan);
 210              		.loc 1 124 0
 211 0080 2100     		movs	r1, r4
 212 0082 FFF7FEFF 		bl	FilterSignal
 213              	.LVL33:
 214 0086 0390     		str	r0, [sp, #12]
 215              	.LVL34:
 125:main.c        ****             
 126:main.c        ****             AMux_1_Select(chan+1);
 216              		.loc 1 126 0
ARM GAS  C:\Users\cdrow\AppData\Local\Temp\ccEGBKO4.s 			page 7


 217 0088 0134     		adds	r4, r4, #1
 218 008a E4B2     		uxtb	r4, r4
 219 008c 2000     		movs	r0, r4
 220              	.LVL35:
 221 008e FFF7FEFF 		bl	AMux_1_Select
 222              	.LVL36:
 127:main.c        ****             ADC_1_StartConvert();
 223              		.loc 1 127 0
 224 0092 FFF7FEFF 		bl	ADC_1_StartConvert
 225              	.LVL37:
 128:main.c        ****             ADC_1_IsEndConversion(ADC_1_WAIT_FOR_RESULT);
 226              		.loc 1 128 0
 227 0096 0220     		movs	r0, #2
 228 0098 FFF7FEFF 		bl	ADC_1_IsEndConversion
 229              	.LVL38:
 129:main.c        ****             vref = ADC_1_GetResult32(0);
 230              		.loc 1 129 0
 231 009c 0020     		movs	r0, #0
 232 009e FFF7FEFF 		bl	ADC_1_GetResult32
 233              	.LVL39:
 234 00a2 0600     		movs	r6, r0
 235              	.LVL40:
 130:main.c        ****             ADC_1_StopConvert();
 236              		.loc 1 130 0
 237 00a4 FFF7FEFF 		bl	ADC_1_StopConvert
 238              	.LVL41:
 131:main.c        ****             vref = vref - adcOffset;
 239              		.loc 1 131 0
 240 00a8 F01B     		subs	r0, r6, r7
 241              	.LVL42:
 132:main.c        ****             
 133:main.c        ****             /* IIR Filter for vref */
 134:main.c        ****             vref = FilterSignal(vref, chan+1);
 242              		.loc 1 134 0
 243 00aa 2100     		movs	r1, r4
 244 00ac FFF7FEFF 		bl	FilterSignal
 245              	.LVL43:
 135:main.c        ****             
 136:main.c        ****             resT = Thermistor_1_GetResistance(vref, vtherm);
 246              		.loc 1 136 0
 247 00b0 00B2     		sxth	r0, r0
 248              	.LVL44:
 249 00b2 6B46     		mov	r3, sp
 250 00b4 0C21     		movs	r1, #12
 251 00b6 595E     		ldrsh	r1, [r3, r1]
 252 00b8 FFF7FEFF 		bl	Thermistor_1_GetResistance
 253              	.LVL45:
 137:main.c        ****             temp = Thermistor_1_GetTemperature(resT);
 254              		.loc 1 137 0
 255 00bc FFF7FEFF 		bl	Thermistor_1_GetTemperature
 256              	.LVL46:
 138:main.c        ****                        
 139:main.c        ****     	    //Determine decimal portion of temperature by dividing temperature by 100
 140:main.c        ****             decTemp = 6; //temp/100;
 141:main.c        ****             
 142:main.c        ****             // Determine fraction portion of temperature by subtracting decimal portion from result
 143:main.c        ****             fracTemp = 90; //temp - (decTemp * 100);
ARM GAS  C:\Users\cdrow\AppData\Local\Temp\ccEGBKO4.s 			page 8


 144:main.c        ****             
 145:main.c        ****             // If fractional temperature is negative make it positive 
 146:main.c        ****             if(fracTemp < 0) {
 147:main.c        ****                 fracTemp *= -1;
 148:main.c        ****             }
 149:main.c        ****                        
 150:main.c        ****             /* Put temperature parts into an array */
 151:main.c        ****             tempArr[chan] = decTemp;
 257              		.loc 1 151 0
 258 00c0 0CAA     		add	r2, sp, #48
 259 00c2 0623     		movs	r3, #6
 260 00c4 5355     		strb	r3, [r2, r5]
 152:main.c        ****             tempArr[chan+1] = fracTemp;
 261              		.loc 1 152 0
 262 00c6 691C     		adds	r1, r5, #1
 263 00c8 5433     		adds	r3, r3, #84
 264 00ca 5354     		strb	r3, [r2, r1]
 153:main.c        ****             
 154:main.c        ****             // Get thermistor number
 155:main.c        ****              i = (chan/2) + 1;
 265              		.loc 1 155 0
 266 00cc EA0F     		lsrs	r2, r5, #31
 267 00ce 5219     		adds	r2, r2, r5
 268 00d0 5210     		asrs	r2, r2, #1
 269 00d2 0132     		adds	r2, r2, #1
 270              	.LVL47:
 156:main.c        ****              //UART Transmission for Debug
 157:main.c        ****              sprintf(string, "Therm %ld = %ld.%.2ld", i, decTemp, fracTemp); 
 271              		.loc 1 157 0
 272 00d4 0F4C     		ldr	r4, .L11
 273 00d6 0093     		str	r3, [sp]
 274 00d8 543B     		subs	r3, r3, #84
 275 00da 0F49     		ldr	r1, .L11+4
 276 00dc 2000     		movs	r0, r4
 277 00de FFF7FEFF 		bl	sprintf
 278              	.LVL48:
 158:main.c        ****              UART_1_UartPutString(string);
 279              		.loc 1 158 0
 280 00e2 2000     		movs	r0, r4
 281 00e4 FFF7FEFF 		bl	UART_1_UartPutString
 282              	.LVL49:
 159:main.c        ****              UART_1_UartPutString("\n\r");
 283              		.loc 1 159 0
 284 00e8 0C48     		ldr	r0, .L11+8
 285 00ea FFF7FEFF 		bl	UART_1_UartPutString
 286              	.LVL50:
 114:main.c        ****                       
 287              		.loc 1 114 0
 288 00ee 0235     		adds	r5, r5, #2
 289              	.LVL51:
 290              	.L8:
 114:main.c        ****                       
 291              		.loc 1 114 0 is_stmt 0 discriminator 1
 292 00f0 1F2D     		cmp	r5, #31
 293 00f2 B5DD     		ble	.L9
 160:main.c        ****             
 161:main.c        ****         }      
ARM GAS  C:\Users\cdrow\AppData\Local\Temp\ccEGBKO4.s 			page 9


 162:main.c        ****         
 163:main.c        ****         /* Copy temperature data to I2C read buffer */
 164:main.c        ****         memcpy(rdBuf, tempArr, 32);
 294              		.loc 1 164 0 is_stmt 1
 295 00f4 2022     		movs	r2, #32
 296 00f6 0CA9     		add	r1, sp, #48
 297 00f8 04A8     		add	r0, sp, #16
 298 00fa FFF7FEFF 		bl	memcpy
 299              	.LVL52:
 165:main.c        ****                 
 166:main.c        ****         /* Clear I2C read buffer and any previous status */
 167:main.c        ****         I2C_1_I2CSlaveClearReadBuf();
 300              		.loc 1 167 0
 301 00fe FFF7FEFF 		bl	I2C_1_I2CSlaveClearReadBuf
 302              	.LVL53:
 168:main.c        ****         I2C_1_I2CSlaveClearReadStatus(); 
 303              		.loc 1 168 0
 304 0102 FFF7FEFF 		bl	I2C_1_I2CSlaveClearReadStatus
 305              	.LVL54:
 169:main.c        ****                 
 170:main.c        ****         /* Dsiable Voltage Reference to help reduce error due to self-heating */
 171:main.c        ****         PVref_1_Stop();
 306              		.loc 1 171 0
 307 0106 FFF7FEFF 		bl	PVref_1_Stop
 308              	.LVL55:
 172:main.c        ****         
 173:main.c        ****         /* Wait five seconds */
 174:main.c        ****         CyDelay(500);
 309              		.loc 1 174 0
 310 010a FA20     		movs	r0, #250
 311 010c 4000     		lsls	r0, r0, #1
 312 010e FFF7FEFF 		bl	CyDelay
 313              	.LVL56:
 175:main.c        ****     }
 314              		.loc 1 175 0
 315 0112 9CE7     		b	.L10
 316              	.L12:
 317              		.align	2
 318              	.L11:
 319 0114 00000000 		.word	string
 320 0118 00000000 		.word	.LC1
 321 011c 18000000 		.word	.LC4
 322              		.cfi_endproc
 323              	.LFE35:
 324              		.size	main, .-main
 325              		.comm	string,16,4
 326              		.section	.rodata.str1.4,"aMS",%progbits,1
 327              		.align	2
 328              	.LC1:
 329 0000 54686572 		.ascii	"Therm %ld = %ld.%.2ld\000"
 329      6D20256C 
 329      64203D20 
 329      256C642E 
 329      252E326C 
 330 0016 0000     		.space	2
 331              	.LC4:
 332 0018 0A0D00   		.ascii	"\012\015\000"
ARM GAS  C:\Users\cdrow\AppData\Local\Temp\ccEGBKO4.s 			page 10


 333              		.bss
 334              		.align	2
 335              		.set	.LANCHOR0,. + 0
 336              		.type	filteredValue.7665, %object
 337              		.size	filteredValue.7665, 128
 338              	filteredValue.7665:
 339 0000 00000000 		.space	128
 339      00000000 
 339      00000000 
 339      00000000 
 339      00000000 
 340              		.text
 341              	.Letext0:
 342              		.file 2 "Generated_Source\\PSoC4/cytypes.h"
 343              		.file 3 "Generated_Source\\PSoC4/I2C_1_I2C.h"
 344              		.file 4 "Generated_Source\\PSoC4/Opamp_1.h"
 345              		.file 5 "Generated_Source\\PSoC4/Opamp_2.h"
 346              		.file 6 "Generated_Source\\PSoC4/Opamp_3.h"
 347              		.file 7 "Generated_Source\\PSoC4/AMux_1.h"
 348              		.file 8 "Generated_Source\\PSoC4/ADC_1.h"
 349              		.file 9 "Generated_Source\\PSoC4/I2C_1.h"
 350              		.file 10 "Generated_Source\\PSoC4/UART_1.h"
 351              		.file 11 "Generated_Source\\PSoC4/LED.h"
 352              		.file 12 "Generated_Source\\PSoC4/PVref_1.h"
 353              		.file 13 "Generated_Source\\PSoC4/Thermistor_1.h"
 354              		.file 14 "c:\\program files (x86)\\cypress\\psoc creator\\4.4\\psoc creator\\import\\gnu\\arm\\5.4
 355              		.file 15 "Generated_Source\\PSoC4/UART_1_SPI_UART.h"
 356              		.file 16 "Generated_Source\\PSoC4/CyLib.h"