ARM GAS  C:\Users\cdrow\AppData\Local\Temp\ccXR29JG.s 			page 1


   1              		.syntax unified
   2              		.cpu cortex-m0plus
   3              		.fpu softvfp
   4              		.eabi_attribute 20, 1
   5              		.eabi_attribute 21, 1
   6              		.eabi_attribute 23, 3
   7              		.eabi_attribute 24, 1
   8              		.eabi_attribute 25, 1
   9              		.eabi_attribute 26, 1
  10              		.eabi_attribute 30, 1
  11              		.eabi_attribute 34, 0
  12              		.eabi_attribute 18, 4
  13              		.thumb
  14              		.syntax unified
  15              		.file	"Thermistor_1.c"
  16              		.text
  17              	.Ltext0:
  18              		.cfi_sections	.debug_frame
  19              		.global	__aeabi_idiv
  20              		.section	.text.Thermistor_1_GetResistance,"ax",%progbits
  21              		.align	2
  22              		.global	Thermistor_1_GetResistance
  23              		.code	16
  24              		.thumb_func
  25              		.type	Thermistor_1_GetResistance, %function
  26              	Thermistor_1_GetResistance:
  27              	.LFB1:
  28              		.file 1 "Generated_Source\\PSoC4\\Thermistor_1.c"
   1:Generated_Source\PSoC4/Thermistor_1.c **** /*******************************************************************************
   2:Generated_Source\PSoC4/Thermistor_1.c **** * File Name: Thermistor_1.c
   3:Generated_Source\PSoC4/Thermistor_1.c **** * Version 1.20
   4:Generated_Source\PSoC4/Thermistor_1.c **** *
   5:Generated_Source\PSoC4/Thermistor_1.c **** * Description:
   6:Generated_Source\PSoC4/Thermistor_1.c **** *  This file provides the source code to the API for the ThermistorCalc
   7:Generated_Source\PSoC4/Thermistor_1.c **** *  Component.
   8:Generated_Source\PSoC4/Thermistor_1.c **** *
   9:Generated_Source\PSoC4/Thermistor_1.c **** * Note:
  10:Generated_Source\PSoC4/Thermistor_1.c **** *  None.
  11:Generated_Source\PSoC4/Thermistor_1.c **** *
  12:Generated_Source\PSoC4/Thermistor_1.c **** ********************************************************************************
  13:Generated_Source\PSoC4/Thermistor_1.c **** * Copyright 2013, Cypress Semiconductor Corporation.  All rights reserved.
  14:Generated_Source\PSoC4/Thermistor_1.c **** * You may use this file only in accordance with the license, terms, conditions,
  15:Generated_Source\PSoC4/Thermistor_1.c **** * disclaimers, and limitations in the end user license agreement accompanying
  16:Generated_Source\PSoC4/Thermistor_1.c **** * the software package with which this file was provided.
  17:Generated_Source\PSoC4/Thermistor_1.c **** *******************************************************************************/
  18:Generated_Source\PSoC4/Thermistor_1.c **** 
  19:Generated_Source\PSoC4/Thermistor_1.c **** #include "Thermistor_1.h"
  20:Generated_Source\PSoC4/Thermistor_1.c **** 
  21:Generated_Source\PSoC4/Thermistor_1.c **** 
  22:Generated_Source\PSoC4/Thermistor_1.c **** /*******************************************************************************
  23:Generated_Source\PSoC4/Thermistor_1.c **** * Function Name: Thermistor_1_GetResistance
  24:Generated_Source\PSoC4/Thermistor_1.c **** ********************************************************************************
  25:Generated_Source\PSoC4/Thermistor_1.c **** *
  26:Generated_Source\PSoC4/Thermistor_1.c **** * Summary:
  27:Generated_Source\PSoC4/Thermistor_1.c **** *  The digital values of the voltages across the reference resistor and the
  28:Generated_Source\PSoC4/Thermistor_1.c **** *  thermistor are passed to this function as parameters. The function returns
  29:Generated_Source\PSoC4/Thermistor_1.c **** *  the resistance, based on the voltage values.
ARM GAS  C:\Users\cdrow\AppData\Local\Temp\ccXR29JG.s 			page 2


  30:Generated_Source\PSoC4/Thermistor_1.c **** *
  31:Generated_Source\PSoC4/Thermistor_1.c **** * Parameters:
  32:Generated_Source\PSoC4/Thermistor_1.c **** *  vReference: the voltage across the reference resistor;
  33:Generated_Source\PSoC4/Thermistor_1.c **** *  vThermistor: the voltage across the thermistor.
  34:Generated_Source\PSoC4/Thermistor_1.c **** *  The ratio of these two voltages is used by this function. Therefore, the
  35:Generated_Source\PSoC4/Thermistor_1.c **** *  units for both parameters must be the same.
  36:Generated_Source\PSoC4/Thermistor_1.c **** *
  37:Generated_Source\PSoC4/Thermistor_1.c **** * Return:
  38:Generated_Source\PSoC4/Thermistor_1.c **** *  The return value is the resistance across the thermistor. The value returned
  39:Generated_Source\PSoC4/Thermistor_1.c **** *  is the resistance in Ohms.
  40:Generated_Source\PSoC4/Thermistor_1.c **** *
  41:Generated_Source\PSoC4/Thermistor_1.c **** *******************************************************************************/
  42:Generated_Source\PSoC4/Thermistor_1.c **** uint32 Thermistor_1_GetResistance(int16 vReference, int16 vThermistor)
  43:Generated_Source\PSoC4/Thermistor_1.c ****                                       
  44:Generated_Source\PSoC4/Thermistor_1.c **** {
  29              		.loc 1 44 0
  30              		.cfi_startproc
  31              		@ args = 0, pretend = 0, frame = 0
  32              		@ frame_needed = 0, uses_anonymous_args = 0
  33              	.LVL0:
  34 0000 10B5     		push	{r4, lr}
  35              		.cfi_def_cfa_offset 8
  36              		.cfi_offset 4, -8
  37              		.cfi_offset 14, -4
  38 0002 0200     		movs	r2, r0
  45:Generated_Source\PSoC4/Thermistor_1.c ****     int32 resT;
  46:Generated_Source\PSoC4/Thermistor_1.c ****     int16 temp;
  47:Generated_Source\PSoC4/Thermistor_1.c **** 
  48:Generated_Source\PSoC4/Thermistor_1.c ****     /* Calculate thermistor resistance from the voltages */
  49:Generated_Source\PSoC4/Thermistor_1.c ****     resT = Thermistor_1_REF_RESISTOR * ((int32)vThermistor);
  39              		.loc 1 49 0
  40 0004 084B     		ldr	r3, .L4
  41 0006 5943     		muls	r1, r3
  42              	.LVL1:
  50:Generated_Source\PSoC4/Thermistor_1.c ****     if (vReference < 0)
  43              		.loc 1 50 0
  44 0008 0028     		cmp	r0, #0
  45 000a 05DA     		bge	.L2
  51:Generated_Source\PSoC4/Thermistor_1.c ****     {
  52:Generated_Source\PSoC4/Thermistor_1.c ****         temp = -vReference;
  46              		.loc 1 52 0
  47 000c 4042     		rsbs	r0, r0, #0
  48              	.LVL2:
  49 000e 80B2     		uxth	r0, r0
  50              	.LVL3:
  53:Generated_Source\PSoC4/Thermistor_1.c ****         temp = (int16)((uint16)((uint16)temp >> 1u));
  51              		.loc 1 53 0
  52 0010 4008     		lsrs	r0, r0, #1
  53              	.LVL4:
  54:Generated_Source\PSoC4/Thermistor_1.c ****         temp = -temp;
  54              		.loc 1 54 0
  55 0012 4342     		rsbs	r3, r0, #0
  56 0014 18B2     		sxth	r0, r3
  57              	.LVL5:
  58 0016 01E0     		b	.L3
  59              	.LVL6:
  60              	.L2:
ARM GAS  C:\Users\cdrow\AppData\Local\Temp\ccXR29JG.s 			page 3


  55:Generated_Source\PSoC4/Thermistor_1.c ****     }
  56:Generated_Source\PSoC4/Thermistor_1.c ****     else
  57:Generated_Source\PSoC4/Thermistor_1.c ****     {
  58:Generated_Source\PSoC4/Thermistor_1.c ****         temp = (int16)((uint16)((uint16)vReference >> 1u));
  61              		.loc 1 58 0
  62 0018 80B2     		uxth	r0, r0
  63 001a 4008     		lsrs	r0, r0, #1
  64              	.LVL7:
  65              	.L3:
  59:Generated_Source\PSoC4/Thermistor_1.c ****     }
  60:Generated_Source\PSoC4/Thermistor_1.c ****     resT += temp;
  66              		.loc 1 60 0
  67 001c 4018     		adds	r0, r0, r1
  68              	.LVL8:
  61:Generated_Source\PSoC4/Thermistor_1.c ****     resT /= vReference;
  69              		.loc 1 61 0
  70 001e 1100     		movs	r1, r2
  71 0020 FFF7FEFF 		bl	__aeabi_idiv
  72              	.LVL9:
  62:Generated_Source\PSoC4/Thermistor_1.c **** 
  63:Generated_Source\PSoC4/Thermistor_1.c ****     /* The ordering of Reference resistor value is specifically designed to keep the result from ov
  64:Generated_Source\PSoC4/Thermistor_1.c ****     return ((uint32)((uint32)resT << Thermistor_1_REF_RES_SHIFT));
  65:Generated_Source\PSoC4/Thermistor_1.c **** }
  73              		.loc 1 65 0
  74              		@ sp needed
  75 0024 10BD     		pop	{r4, pc}
  76              	.L5:
  77 0026 C046     		.align	2
  78              	.L4:
  79 0028 983A0000 		.word	15000
  80              		.cfi_endproc
  81              	.LFE1:
  82              		.size	Thermistor_1_GetResistance, .-Thermistor_1_GetResistance
  83              		.global	__aeabi_ui2d
  84              		.global	__aeabi_d2f
  85              		.global	__aeabi_f2d
  86              		.global	__aeabi_dmul
  87              		.global	__aeabi_dadd
  88              		.global	__aeabi_ddiv
  89              		.global	__aeabi_dsub
  90              		.global	__aeabi_f2iz
  91              		.section	.text.Thermistor_1_GetTemperature,"ax",%progbits
  92              		.align	2
  93              		.global	Thermistor_1_GetTemperature
  94              		.code	16
  95              		.thumb_func
  96              		.type	Thermistor_1_GetTemperature, %function
  97              	Thermistor_1_GetTemperature:
  98              	.LFB2:
  66:Generated_Source\PSoC4/Thermistor_1.c **** 
  67:Generated_Source\PSoC4/Thermistor_1.c **** 
  68:Generated_Source\PSoC4/Thermistor_1.c **** /*******************************************************************************
  69:Generated_Source\PSoC4/Thermistor_1.c **** * Function Name: Thermistor_1_GetTemperature
  70:Generated_Source\PSoC4/Thermistor_1.c **** ********************************************************************************
  71:Generated_Source\PSoC4/Thermistor_1.c **** *
  72:Generated_Source\PSoC4/Thermistor_1.c **** * Summary:
  73:Generated_Source\PSoC4/Thermistor_1.c **** *  The value of the thermistor resistance is passed to this function as a
ARM GAS  C:\Users\cdrow\AppData\Local\Temp\ccXR29JG.s 			page 4


  74:Generated_Source\PSoC4/Thermistor_1.c **** *  parameter. The function returns the temperature, based on the resistance
  75:Generated_Source\PSoC4/Thermistor_1.c **** *  value. The method used to calculate the temperature is dependent on whether
  76:Generated_Source\PSoC4/Thermistor_1.c **** *  Equation or LUT was selected in the Customizer.
  77:Generated_Source\PSoC4/Thermistor_1.c **** *
  78:Generated_Source\PSoC4/Thermistor_1.c **** * Parameters:
  79:Generated_Source\PSoC4/Thermistor_1.c **** *  resT: the resistance across the thermistor in Ohms.
  80:Generated_Source\PSoC4/Thermistor_1.c **** *
  81:Generated_Source\PSoC4/Thermistor_1.c **** * Return:
  82:Generated_Source\PSoC4/Thermistor_1.c **** *  The return value is the temperature in 1/100ths of degrees C. For example,
  83:Generated_Source\PSoC4/Thermistor_1.c **** *  the return value is 2345, when the actual temperature is 23.45 degrees C.
  84:Generated_Source\PSoC4/Thermistor_1.c **** *
  85:Generated_Source\PSoC4/Thermistor_1.c **** *******************************************************************************/
  86:Generated_Source\PSoC4/Thermistor_1.c **** int16 Thermistor_1_GetTemperature(uint32 resT) 
  87:Generated_Source\PSoC4/Thermistor_1.c **** {
  99              		.loc 1 87 0
 100              		.cfi_startproc
 101              		@ args = 0, pretend = 0, frame = 0
 102              		@ frame_needed = 0, uses_anonymous_args = 0
 103              	.LVL10:
 104 0000 F8B5     		push	{r3, r4, r5, r6, r7, lr}
 105              		.cfi_def_cfa_offset 24
 106              		.cfi_offset 3, -24
 107              		.cfi_offset 4, -20
 108              		.cfi_offset 5, -16
 109              		.cfi_offset 6, -12
 110              		.cfi_offset 7, -8
 111              		.cfi_offset 14, -4
  88:Generated_Source\PSoC4/Thermistor_1.c ****     int16 tempTR;
  89:Generated_Source\PSoC4/Thermistor_1.c ****     
  90:Generated_Source\PSoC4/Thermistor_1.c ****     #if (Thermistor_1_IMPLEMENTATION == Thermistor_1_EQUATION_METHOD)
  91:Generated_Source\PSoC4/Thermistor_1.c **** 
  92:Generated_Source\PSoC4/Thermistor_1.c ****         float32 stEqn;
  93:Generated_Source\PSoC4/Thermistor_1.c ****         float32 logrT;
  94:Generated_Source\PSoC4/Thermistor_1.c **** 
  95:Generated_Source\PSoC4/Thermistor_1.c ****         /* Calculate thermistor resistance from the voltages */
  96:Generated_Source\PSoC4/Thermistor_1.c ****         #if(!CY_PSOC3)
  97:Generated_Source\PSoC4/Thermistor_1.c ****             logrT = (float32)log((float64)resT);
 112              		.loc 1 97 0
 113 0002 FFF7FEFF 		bl	__aeabi_ui2d
 114              	.LVL11:
 115 0006 FFF7FEFF 		bl	log
 116              	.LVL12:
 117 000a FFF7FEFF 		bl	__aeabi_d2f
 118              	.LVL13:
  98:Generated_Source\PSoC4/Thermistor_1.c ****         #else
  99:Generated_Source\PSoC4/Thermistor_1.c ****             logrT = log((float32)resT);
 100:Generated_Source\PSoC4/Thermistor_1.c ****         #endif  /* (!CY_PSOC3) */
 101:Generated_Source\PSoC4/Thermistor_1.c **** 
 102:Generated_Source\PSoC4/Thermistor_1.c ****         /* Calculate temperature from the resistance of thermistor using Steinhart-Hart Equation */
 103:Generated_Source\PSoC4/Thermistor_1.c ****         #if(!CY_PSOC3)
 104:Generated_Source\PSoC4/Thermistor_1.c ****             stEqn = (float32)(Thermistor_1_THA + (Thermistor_1_THB * logrT) + 
 119              		.loc 1 104 0
 120 000e FFF7FEFF 		bl	__aeabi_f2d
 121              	.LVL14:
 122 0012 0400     		movs	r4, r0
 123 0014 0D00     		movs	r5, r1
 124 0016 1B4A     		ldr	r2, .L7
ARM GAS  C:\Users\cdrow\AppData\Local\Temp\ccXR29JG.s 			page 5


 125 0018 1B4B     		ldr	r3, .L7+4
 126 001a FFF7FEFF 		bl	__aeabi_dmul
 127              	.LVL15:
 128 001e 1B4A     		ldr	r2, .L7+8
 129 0020 1B4B     		ldr	r3, .L7+12
 130 0022 FFF7FEFF 		bl	__aeabi_dadd
 131              	.LVL16:
 132 0026 0600     		movs	r6, r0
 133 0028 0F00     		movs	r7, r1
 105:Generated_Source\PSoC4/Thermistor_1.c ****                              (Thermistor_1_THC * pow((float64)logrT, (float32)3)));
 134              		.loc 1 105 0
 135 002a 0022     		movs	r2, #0
 136 002c 194B     		ldr	r3, .L7+16
 137 002e 2000     		movs	r0, r4
 138 0030 2900     		movs	r1, r5
 139 0032 FFF7FEFF 		bl	pow
 140              	.LVL17:
 141 0036 184A     		ldr	r2, .L7+20
 142 0038 184B     		ldr	r3, .L7+24
 143 003a FFF7FEFF 		bl	__aeabi_dmul
 144              	.LVL18:
 145 003e 0200     		movs	r2, r0
 146 0040 0B00     		movs	r3, r1
 104:Generated_Source\PSoC4/Thermistor_1.c ****                              (Thermistor_1_THC * pow((float64)logrT, (float32)3)));
 147              		.loc 1 104 0
 148 0042 3000     		movs	r0, r6
 149 0044 3900     		movs	r1, r7
 150 0046 FFF7FEFF 		bl	__aeabi_dadd
 151              	.LVL19:
 152 004a FFF7FEFF 		bl	__aeabi_d2f
 153              	.LVL20:
 106:Generated_Source\PSoC4/Thermistor_1.c ****         #else
 107:Generated_Source\PSoC4/Thermistor_1.c ****             stEqn = (float32)(Thermistor_1_THA + (Thermistor_1_THB * logrT) + 
 108:Generated_Source\PSoC4/Thermistor_1.c ****                              (Thermistor_1_THC * pow(logrT, (float32)3)));
 109:Generated_Source\PSoC4/Thermistor_1.c ****         #endif  /* (!CY_PSOC3) */
 110:Generated_Source\PSoC4/Thermistor_1.c **** 
 111:Generated_Source\PSoC4/Thermistor_1.c ****         tempTR = (int16)((float32)((((1.0 / stEqn) - Thermistor_1_K2C) * (float32)Thermistor_1_SCAL
 154              		.loc 1 111 0
 155 004e FFF7FEFF 		bl	__aeabi_f2d
 156              	.LVL21:
 157 0052 0200     		movs	r2, r0
 158 0054 0B00     		movs	r3, r1
 159 0056 0020     		movs	r0, #0
 160 0058 1149     		ldr	r1, .L7+28
 161 005a FFF7FEFF 		bl	__aeabi_ddiv
 162              	.LVL22:
 163 005e 114A     		ldr	r2, .L7+32
 164 0060 114B     		ldr	r3, .L7+36
 165 0062 FFF7FEFF 		bl	__aeabi_dsub
 166              	.LVL23:
 167 0066 0022     		movs	r2, #0
 168 0068 104B     		ldr	r3, .L7+40
 169 006a FFF7FEFF 		bl	__aeabi_dmul
 170              	.LVL24:
 171 006e 0022     		movs	r2, #0
 172 0070 0F4B     		ldr	r3, .L7+44
 173 0072 FFF7FEFF 		bl	__aeabi_dadd
ARM GAS  C:\Users\cdrow\AppData\Local\Temp\ccXR29JG.s 			page 6


 174              	.LVL25:
 175 0076 FFF7FEFF 		bl	__aeabi_d2f
 176              	.LVL26:
 177 007a FFF7FEFF 		bl	__aeabi_f2iz
 178              	.LVL27:
 179 007e 00B2     		sxth	r0, r0
 180              	.LVL28:
 112:Generated_Source\PSoC4/Thermistor_1.c **** 
 113:Generated_Source\PSoC4/Thermistor_1.c ****     #else /* Thermistor_1_IMPLEMENTATION == Thermistor_1_LUT_METHOD */
 114:Generated_Source\PSoC4/Thermistor_1.c **** 
 115:Generated_Source\PSoC4/Thermistor_1.c ****         uint16 mid;
 116:Generated_Source\PSoC4/Thermistor_1.c ****         uint16 first = 0u;
 117:Generated_Source\PSoC4/Thermistor_1.c ****         uint16 last = Thermistor_1_LUT_SIZE - 1u;
 118:Generated_Source\PSoC4/Thermistor_1.c **** 
 119:Generated_Source\PSoC4/Thermistor_1.c ****         /* Calculate temperature from the resistance of thermistor by using the LUT */
 120:Generated_Source\PSoC4/Thermistor_1.c ****         while (first < last)
 121:Generated_Source\PSoC4/Thermistor_1.c ****         {
 122:Generated_Source\PSoC4/Thermistor_1.c ****             mid = (first + last) >> 1u;
 123:Generated_Source\PSoC4/Thermistor_1.c **** 
 124:Generated_Source\PSoC4/Thermistor_1.c ****             if ((0u == mid) || ((Thermistor_1_LUT_SIZE - 1u) == mid) || (resT == Thermistor_1_LUT[m
 125:Generated_Source\PSoC4/Thermistor_1.c ****             {
 126:Generated_Source\PSoC4/Thermistor_1.c ****                 last = mid;
 127:Generated_Source\PSoC4/Thermistor_1.c ****                 break;
 128:Generated_Source\PSoC4/Thermistor_1.c ****             }
 129:Generated_Source\PSoC4/Thermistor_1.c ****             else if (Thermistor_1_LUT[mid] > resT)
 130:Generated_Source\PSoC4/Thermistor_1.c ****             {
 131:Generated_Source\PSoC4/Thermistor_1.c ****                 first = mid + 1u;
 132:Generated_Source\PSoC4/Thermistor_1.c ****             }
 133:Generated_Source\PSoC4/Thermistor_1.c ****             else /* (Thermistor_1_LUT[mid] < resT) */
 134:Generated_Source\PSoC4/Thermistor_1.c ****             {
 135:Generated_Source\PSoC4/Thermistor_1.c ****                 last = mid - 1u;
 136:Generated_Source\PSoC4/Thermistor_1.c ****             }
 137:Generated_Source\PSoC4/Thermistor_1.c ****         }
 138:Generated_Source\PSoC4/Thermistor_1.c **** 
 139:Generated_Source\PSoC4/Thermistor_1.c ****         /* Calculation the closest entry in the LUT */
 140:Generated_Source\PSoC4/Thermistor_1.c ****         if ((Thermistor_1_LUT[last] > resT) && (last < (Thermistor_1_LUT_SIZE - 1u)) &&
 141:Generated_Source\PSoC4/Thermistor_1.c ****            ((Thermistor_1_LUT[last] - resT) > (resT - Thermistor_1_LUT[last + 1u])))
 142:Generated_Source\PSoC4/Thermistor_1.c ****         {
 143:Generated_Source\PSoC4/Thermistor_1.c ****             last++;
 144:Generated_Source\PSoC4/Thermistor_1.c ****         }
 145:Generated_Source\PSoC4/Thermistor_1.c ****         else if ((Thermistor_1_LUT[last] < resT) && (last > 0u) &&
 146:Generated_Source\PSoC4/Thermistor_1.c ****                 ((Thermistor_1_LUT[last - 1u] - resT) < (resT - Thermistor_1_LUT[last])))
 147:Generated_Source\PSoC4/Thermistor_1.c ****         {
 148:Generated_Source\PSoC4/Thermistor_1.c ****             last--;
 149:Generated_Source\PSoC4/Thermistor_1.c ****         }
 150:Generated_Source\PSoC4/Thermistor_1.c ****         else
 151:Generated_Source\PSoC4/Thermistor_1.c ****         {
 152:Generated_Source\PSoC4/Thermistor_1.c ****             /* Closest entry in the LUT already found */
 153:Generated_Source\PSoC4/Thermistor_1.c ****         }
 154:Generated_Source\PSoC4/Thermistor_1.c **** 
 155:Generated_Source\PSoC4/Thermistor_1.c ****         tempTR = Thermistor_1_MIN_TEMP + (int16)((uint16)(last * Thermistor_1_ACCURACY));
 156:Generated_Source\PSoC4/Thermistor_1.c **** 
 157:Generated_Source\PSoC4/Thermistor_1.c ****     #endif /* (Thermistor_1_IMPLEMENTATION == Thermistor_1_EQUATION_METHOD) */
 158:Generated_Source\PSoC4/Thermistor_1.c **** 
 159:Generated_Source\PSoC4/Thermistor_1.c ****     return (tempTR);
 160:Generated_Source\PSoC4/Thermistor_1.c **** }
 181              		.loc 1 160 0
ARM GAS  C:\Users\cdrow\AppData\Local\Temp\ccXR29JG.s 			page 7


 182              		@ sp needed
 183 0080 F8BD     		pop	{r3, r4, r5, r6, r7, pc}
 184              	.L8:
 185 0082 C046     		.align	2
 186              	.L7:
 187 0084 1C2C1991 		.word	-1860621284
 188 0088 7A20313F 		.word	1060184186
 189 008c CF94E830 		.word	820548815
 190 0090 90BC4B3F 		.word	1061928080
 191 0094 00000840 		.word	1074266112
 192 0098 F215FFBF 		.word	-1073801742
 193 009c FE46813E 		.word	1048659710
 194 00a0 0000F03F 		.word	1072693248
 195 00a4 66666666 		.word	1717986918
 196 00a8 66127140 		.word	1081152102
 197 00ac 00005940 		.word	1079574528
 198 00b0 0000E03F 		.word	1071644672
 199              		.cfi_endproc
 200              	.LFE2:
 201              		.size	Thermistor_1_GetTemperature, .-Thermistor_1_GetTemperature
 202              		.text
 203              	.Letext0:
 204              		.file 2 "Generated_Source\\PSoC4\\cytypes.h"
 205              		.file 3 "c:\\program files (x86)\\cypress\\psoc creator\\4.4\\psoc creator\\import\\gnu\\arm\\5.4.