ARM GAS  C:\Users\cdrow\AppData\Local\Temp\cctXuiCj.s 			page 1


   1              		.syntax unified
   2              		.cpu cortex-m0plus
   3              		.fpu softvfp
   4              		.eabi_attribute 20, 1
   5              		.eabi_attribute 21, 1
   6              		.eabi_attribute 23, 3
   7              		.eabi_attribute 24, 1
   8              		.eabi_attribute 25, 1
   9              		.eabi_attribute 26, 1
  10              		.eabi_attribute 30, 1
  11              		.eabi_attribute 34, 0
  12              		.eabi_attribute 18, 4
  13              		.thumb
  14              		.syntax unified
  15              		.file	"main.c"
  16              		.text
  17              	.Ltext0:
  18              		.cfi_sections	.debug_frame
  19              		.section	.text.Shutdown_Test,"ax",%progbits
  20              		.align	2
  21              		.global	Shutdown_Test
  22              		.code	16
  23              		.thumb_func
  24              		.type	Shutdown_Test, %function
  25              	Shutdown_Test:
  26              	.LFB34:
  27              		.file 1 "main.c"
   1:main.c        **** /* ========================================
   2:main.c        ****  *
   3:main.c        ****  * Copyright YOUR COMPANY, THE YEAR
   4:main.c        ****  * All Rights Reserved
   5:main.c        ****  * UNPUBLISHED, LICENSED SOFTWARE.
   6:main.c        ****  *
   7:main.c        ****  * CONFIDENTIAL AND PROPRIETARY INFORMATION
   8:main.c        ****  * WHICH IS THE PROPERTY OF your company.
   9:main.c        ****  *
  10:main.c        ****  * ========================================
  11:main.c        **** */
  12:main.c        **** #include <project.h>
  13:main.c        **** #include <stdio.h>
  14:main.c        **** #include <stdlib.h>
  15:main.c        **** //#include <LIS3DH.h>
  16:main.c        **** 
  17:main.c        **** #define true 1u
  18:main.c        **** #define false 0u
  19:main.c        **** 
  20:main.c        **** void Shutdown_Test()
  21:main.c        **** {
  28              		.loc 1 21 0
  29              		.cfi_startproc
  30              		@ args = 0, pretend = 0, frame = 0
  31              		@ frame_needed = 0, uses_anonymous_args = 0
  32 0000 10B5     		push	{r4, lr}
  33              		.cfi_def_cfa_offset 8
  34              		.cfi_offset 4, -8
  35              		.cfi_offset 14, -4
  22:main.c        ****     RED_LED_Write(1);
ARM GAS  C:\Users\cdrow\AppData\Local\Temp\cctXuiCj.s 			page 2


  36              		.loc 1 22 0
  37 0002 0120     		movs	r0, #1
  38 0004 FFF7FEFF 		bl	RED_LED_Write
  39              	.LVL0:
  23:main.c        ****     RELAY_Write(0);
  40              		.loc 1 23 0
  41 0008 0020     		movs	r0, #0
  42 000a FFF7FEFF 		bl	RELAY_Write
  43              	.LVL1:
  24:main.c        **** }
  44              		.loc 1 24 0
  45              		@ sp needed
  46 000e 10BD     		pop	{r4, pc}
  47              		.cfi_endproc
  48              	.LFE34:
  49              		.size	Shutdown_Test, .-Shutdown_Test
  50              		.section	.text.Print_headers,"ax",%progbits
  51              		.align	2
  52              		.global	Print_headers
  53              		.code	16
  54              		.thumb_func
  55              		.type	Print_headers, %function
  56              	Print_headers:
  57              	.LFB35:
  25:main.c        **** void Print_headers(uint length)
  26:main.c        **** {
  58              		.loc 1 26 0
  59              		.cfi_startproc
  60              		@ args = 0, pretend = 0, frame = 64
  61              		@ frame_needed = 0, uses_anonymous_args = 0
  62              	.LVL2:
  63 0000 70B5     		push	{r4, r5, r6, lr}
  64              		.cfi_def_cfa_offset 16
  65              		.cfi_offset 4, -16
  66              		.cfi_offset 5, -12
  67              		.cfi_offset 6, -8
  68              		.cfi_offset 14, -4
  69 0002 90B0     		sub	sp, sp, #64
  70              		.cfi_def_cfa_offset 80
  71 0004 0500     		movs	r5, r0
  27:main.c        ****     char hstr[60]; 
  28:main.c        ****     sprintf(hstr,"\r\n");
  72              		.loc 1 28 0
  73 0006 01AC     		add	r4, sp, #4
  74 0008 1A4B     		ldr	r3, .L7
  75 000a 1A88     		ldrh	r2, [r3]
  76 000c 2280     		strh	r2, [r4]
  77 000e 9B78     		ldrb	r3, [r3, #2]
  78 0010 A370     		strb	r3, [r4, #2]
  29:main.c        ****     UART_1_UartPutString(hstr);
  79              		.loc 1 29 0
  80 0012 2000     		movs	r0, r4
  81              	.LVL3:
  82 0014 FFF7FEFF 		bl	UART_1_UartPutString
  83              	.LVL4:
  30:main.c        ****     sprintf(hstr,"Time, Shunt(A), Bat(V), ");
  84              		.loc 1 30 0
ARM GAS  C:\Users\cdrow\AppData\Local\Temp\cctXuiCj.s 			page 3


  85 0018 1749     		ldr	r1, .L7+4
  86 001a 2300     		movs	r3, r4
  87 001c 0A00     		movs	r2, r1
  88 001e 43CA     		ldmia	r2!, {r0, r1, r6}
  89 0020 43C3     		stmia	r3!, {r0, r1, r6}
  90 0022 43CA     		ldmia	r2!, {r0, r1, r6}
  91 0024 43C3     		stmia	r3!, {r0, r1, r6}
  92 0026 1278     		ldrb	r2, [r2]
  93 0028 1A70     		strb	r2, [r3]
  31:main.c        ****     UART_1_UartPutString(hstr);
  94              		.loc 1 31 0
  95 002a 2000     		movs	r0, r4
  96 002c FFF7FEFF 		bl	UART_1_UartPutString
  97              	.LVL5:
  98              	.LBB2:
  32:main.c        ****     
  33:main.c        ****     for (uint i = 0; i < length; i++){
  99              		.loc 1 33 0
 100 0030 0024     		movs	r4, #0
 101 0032 0BE0     		b	.L3
 102              	.LVL6:
 103              	.L4:
  34:main.c        ****         sprintf(hstr,"Battery Temp %d, ", i);
 104              		.loc 1 34 0 discriminator 3
 105 0034 2200     		movs	r2, r4
 106 0036 1149     		ldr	r1, .L7+8
 107 0038 01A8     		add	r0, sp, #4
 108 003a FFF7FEFF 		bl	sprintf
 109              	.LVL7:
  35:main.c        ****         UART_1_UartPutString(hstr);
 110              		.loc 1 35 0 discriminator 3
 111 003e 01A8     		add	r0, sp, #4
 112 0040 FFF7FEFF 		bl	UART_1_UartPutString
 113              	.LVL8:
  36:main.c        ****         CyDelay(10);
 114              		.loc 1 36 0 discriminator 3
 115 0044 0A20     		movs	r0, #10
 116 0046 FFF7FEFF 		bl	CyDelay
 117              	.LVL9:
  33:main.c        ****         sprintf(hstr,"Battery Temp %d, ", i);
 118              		.loc 1 33 0 discriminator 3
 119 004a 0134     		adds	r4, r4, #1
 120              	.LVL10:
 121              	.L3:
  33:main.c        ****         sprintf(hstr,"Battery Temp %d, ", i);
 122              		.loc 1 33 0 is_stmt 0 discriminator 1
 123 004c AC42     		cmp	r4, r5
 124 004e F1D3     		bcc	.L4
 125 0050 0024     		movs	r4, #0
 126              	.LVL11:
 127 0052 0BE0     		b	.L5
 128              	.LVL12:
 129              	.L6:
 130              	.LBE2:
 131              	.LBB3:
  37:main.c        ****         }
  38:main.c        ****         for (uint i = 0; i < length; i++){
ARM GAS  C:\Users\cdrow\AppData\Local\Temp\cctXuiCj.s 			page 4


  39:main.c        ****         sprintf(hstr,"Resistor Temp %d, ", i);
 132              		.loc 1 39 0 is_stmt 1 discriminator 3
 133 0054 2200     		movs	r2, r4
 134 0056 0A49     		ldr	r1, .L7+12
 135 0058 01A8     		add	r0, sp, #4
 136 005a FFF7FEFF 		bl	sprintf
 137              	.LVL13:
  40:main.c        ****         UART_1_UartPutString(hstr);
 138              		.loc 1 40 0 discriminator 3
 139 005e 01A8     		add	r0, sp, #4
 140 0060 FFF7FEFF 		bl	UART_1_UartPutString
 141              	.LVL14:
  41:main.c        ****         CyDelay(10);
 142              		.loc 1 41 0 discriminator 3
 143 0064 0A20     		movs	r0, #10
 144 0066 FFF7FEFF 		bl	CyDelay
 145              	.LVL15:
  38:main.c        ****         sprintf(hstr,"Resistor Temp %d, ", i);
 146              		.loc 1 38 0 discriminator 3
 147 006a 0134     		adds	r4, r4, #1
 148              	.LVL16:
 149              	.L5:
  38:main.c        ****         sprintf(hstr,"Resistor Temp %d, ", i);
 150              		.loc 1 38 0 is_stmt 0 discriminator 1
 151 006c AC42     		cmp	r4, r5
 152 006e F1D3     		bcc	.L6
 153              	.LBE3:
  42:main.c        ****         }   
  43:main.c        **** }
 154              		.loc 1 43 0 is_stmt 1
 155 0070 10B0     		add	sp, sp, #64
 156              		@ sp needed
 157              	.LVL17:
 158              	.LVL18:
 159 0072 70BD     		pop	{r4, r5, r6, pc}
 160              	.L8:
 161              		.align	2
 162              	.L7:
 163 0074 00000000 		.word	.LC0
 164 0078 04000000 		.word	.LC2
 165 007c 20000000 		.word	.LC4
 166 0080 34000000 		.word	.LC6
 167              		.cfi_endproc
 168              	.LFE35:
 169              		.size	Print_headers, .-Print_headers
 170              		.global	__aeabi_i2f
 171              		.global	__aeabi_f2d
 172              		.global	__aeabi_fdiv
 173              		.section	.text.main,"ax",%progbits
 174              		.align	2
 175              		.global	main
 176              		.code	16
 177              		.thumb_func
 178              		.type	main, %function
 179              	main:
 180              	.LFB36:
  44:main.c        **** 
ARM GAS  C:\Users\cdrow\AppData\Local\Temp\cctXuiCj.s 			page 5


  45:main.c        **** int main (void)
  46:main.c        **** {
 181              		.loc 1 46 0
 182              		.cfi_startproc
 183              		@ args = 0, pretend = 0, frame = 88
 184              		@ frame_needed = 0, uses_anonymous_args = 0
 185 0000 70B5     		push	{r4, r5, r6, lr}
 186              		.cfi_def_cfa_offset 16
 187              		.cfi_offset 4, -16
 188              		.cfi_offset 5, -12
 189              		.cfi_offset 6, -8
 190              		.cfi_offset 14, -4
 191 0002 96B0     		sub	sp, sp, #88
 192              		.cfi_def_cfa_offset 104
 193              	.LVL19:
  47:main.c        ****     int lowTemp = true;
  48:main.c        ****     int lowCurrent = true;
  49:main.c        ****     int stopPlease = false;
  50:main.c        ****     int time;
  51:main.c        ****     char string[20];
  52:main.c        ****     
  53:main.c        ****     AMux_1_Start();
 194              		.loc 1 53 0
 195 0004 FFF7FEFF 		bl	AMux_1_Start
 196              	.LVL20:
  54:main.c        ****     Opamp_1_Start();
 197              		.loc 1 54 0
 198 0008 FFF7FEFF 		bl	Opamp_1_Start
 199              	.LVL21:
  55:main.c        ****     PGA_1_Start();
 200              		.loc 1 55 0
 201 000c FFF7FEFF 		bl	PGA_1_Start
 202              	.LVL22:
  56:main.c        ****     Timer_1_Start();
 203              		.loc 1 56 0
 204 0010 FFF7FEFF 		bl	Timer_1_Start
 205              	.LVL23:
  57:main.c        ****     UART_1_Start();
 206              		.loc 1 57 0
 207 0014 FFF7FEFF 		bl	UART_1_Start
 208              	.LVL24:
  58:main.c        ****     RED_LED_Write(0);
 209              		.loc 1 58 0
 210 0018 0020     		movs	r0, #0
 211 001a FFF7FEFF 		bl	RED_LED_Write
 212              	.LVL25:
  59:main.c        ****     RELAY_Write(0);
 213              		.loc 1 59 0
 214 001e 0020     		movs	r0, #0
 215 0020 FFF7FEFF 		bl	RELAY_Write
 216              	.LVL26:
  60:main.c        ****     ADC_1_Start();
 217              		.loc 1 60 0
 218 0024 FFF7FEFF 		bl	ADC_1_Start
 219              	.LVL27:
  61:main.c        ****     I2C_1_Start();
 220              		.loc 1 61 0
ARM GAS  C:\Users\cdrow\AppData\Local\Temp\cctXuiCj.s 			page 6


 221 0028 FFF7FEFF 		bl	I2C_1_Start
 222              	.LVL28:
  62:main.c        ****     
  63:main.c        ****     CyGlobalIntEnable; /* Enable global interrupts. */
 223              		.loc 1 63 0
 224              		.syntax divided
 225              	@ 63 "main.c" 1
 226 002c 62B6     		CPSIE   i
 227              	@ 0 "" 2
  64:main.c        ****     
  65:main.c        ****     uint32 vmShunt;
  66:main.c        ****     float vmShmV;
  67:main.c        ****     uint32 vmBat;
  68:main.c        ****     float vmBatmV;
  69:main.c        ****     
  70:main.c        ****     
  71:main.c        ****     uint8 batteryArray[32];
  72:main.c        ****     uint8 resistorArray[32];
  73:main.c        ****     int addr;
  74:main.c        ****     char string1[20];
  75:main.c        ****     uint32 rxData;
  76:main.c        ****     
  77:main.c        ****     
  78:main.c        ****     sprintf(string1,"\r\n Enter G to Start Test, Enter S to Stop \r\n");
 228              		.loc 1 78 0
 229              		.thumb
 230              		.syntax unified
 231 002e 01A8     		add	r0, sp, #4
 232 0030 6549     		ldr	r1, .L19
 233 0032 0300     		movs	r3, r0
 234 0034 0A00     		movs	r2, r1
 235 0036 32CA     		ldmia	r2!, {r1, r4, r5}
 236 0038 32C3     		stmia	r3!, {r1, r4, r5}
 237 003a 32CA     		ldmia	r2!, {r1, r4, r5}
 238 003c 32C3     		stmia	r3!, {r1, r4, r5}
 239 003e 32CA     		ldmia	r2!, {r1, r4, r5}
 240 0040 32C3     		stmia	r3!, {r1, r4, r5}
 241 0042 12CA     		ldmia	r2!, {r1, r4}
 242 0044 12C3     		stmia	r3!, {r1, r4}
 243 0046 1278     		ldrb	r2, [r2]
 244 0048 1A70     		strb	r2, [r3]
  79:main.c        ****     UART_1_UartPutString(string1);
 245              		.loc 1 79 0
 246 004a FFF7FEFF 		bl	UART_1_UartPutString
 247              	.LVL29:
  49:main.c        ****     int time;
 248              		.loc 1 49 0
 249 004e 0025     		movs	r5, #0
 250              	.LVL30:
 251              	.L18:
  80:main.c        **** 
  81:main.c        ****     for(;;)
  82:main.c        ****     {
  83:main.c        ****         time = Timer_1_ReadCounter();
 252              		.loc 1 83 0
 253 0050 FFF7FEFF 		bl	Timer_1_ReadCounter
 254              	.LVL31:
ARM GAS  C:\Users\cdrow\AppData\Local\Temp\cctXuiCj.s 			page 7


  84:main.c        ****         RED_LED_Write(1);
 255              		.loc 1 84 0
 256 0054 0120     		movs	r0, #1
 257 0056 FFF7FEFF 		bl	RED_LED_Write
 258              	.LVL32:
  85:main.c        ****         CyDelay(1000);
 259              		.loc 1 85 0
 260 005a FA20     		movs	r0, #250
 261 005c 8000     		lsls	r0, r0, #2
 262 005e FFF7FEFF 		bl	CyDelay
 263              	.LVL33:
  86:main.c        ****         RELAY_Write(0);
 264              		.loc 1 86 0
 265 0062 0020     		movs	r0, #0
 266 0064 FFF7FEFF 		bl	RELAY_Write
 267              	.LVL34:
  87:main.c        ****         rxData = UART_1_UartGetChar();
 268              		.loc 1 87 0
 269 0068 FFF7FEFF 		bl	UART_1_UartGetChar
 270              	.LVL35:
  88:main.c        ****         
  89:main.c        ****         if (rxData == 71)  //Type Capital G into Putty
 271              		.loc 1 89 0
 272 006c 4728     		cmp	r0, #71
 273 006e 00D0     		beq	.LCB203
 274 0070 A6E0     		b	.L10	@long jump
 275              	.LCB203:
  90:main.c        ****         {
  91:main.c        ****             sprintf(string1,"\r\n Beginning the Test... \r\n");
 276              		.loc 1 91 0
 277 0072 01A8     		add	r0, sp, #4
 278              	.LVL36:
 279 0074 5549     		ldr	r1, .L19+4
 280 0076 0300     		movs	r3, r0
 281 0078 0A00     		movs	r2, r1
 282 007a 52CA     		ldmia	r2!, {r1, r4, r6}
 283 007c 52C3     		stmia	r3!, {r1, r4, r6}
 284 007e 52CA     		ldmia	r2!, {r1, r4, r6}
 285 0080 52C3     		stmia	r3!, {r1, r4, r6}
 286 0082 1268     		ldr	r2, [r2]
 287 0084 1A60     		str	r2, [r3]
  92:main.c        ****             UART_1_UartPutString(string1);
 288              		.loc 1 92 0
 289 0086 FFF7FEFF 		bl	UART_1_UartPutString
 290              	.LVL37:
  93:main.c        ****             RED_LED_Write(1);
 291              		.loc 1 93 0
 292 008a 0120     		movs	r0, #1
 293 008c FFF7FEFF 		bl	RED_LED_Write
 294              	.LVL38:
  94:main.c        ****             RELAY_Write(1);
 295              		.loc 1 94 0
 296 0090 0120     		movs	r0, #1
 297 0092 FFF7FEFF 		bl	RELAY_Write
 298              	.LVL39:
  95:main.c        ****             Timer_1_Start();
 299              		.loc 1 95 0
ARM GAS  C:\Users\cdrow\AppData\Local\Temp\cctXuiCj.s 			page 8


 300 0096 FFF7FEFF 		bl	Timer_1_Start
 301              	.LVL40:
  96:main.c        ****             Print_headers(35);
 302              		.loc 1 96 0
 303 009a 2320     		movs	r0, #35
 304 009c FFF7FEFF 		bl	Print_headers
 305              	.LVL41:
  97:main.c        ****            
  98:main.c        ****             while(lowTemp && lowCurrent && !stopPlease){
 306              		.loc 1 98 0
 307 00a0 8BE0     		b	.L16
 308              	.L17:
  99:main.c        ****                 time = Timer_1_ReadCounter();
 309              		.loc 1 99 0
 310 00a2 FFF7FEFF 		bl	Timer_1_ReadCounter
 311              	.LVL42:
 312 00a6 0200     		movs	r2, r0
 313              	.LVL43:
 100:main.c        ****                 sprintf(string1,"\r\n %d, ", time);
 314              		.loc 1 100 0
 315 00a8 4949     		ldr	r1, .L19+8
 316 00aa 01A8     		add	r0, sp, #4
 317              	.LVL44:
 318 00ac FFF7FEFF 		bl	sprintf
 319              	.LVL45:
 101:main.c        ****                 
 102:main.c        ****                 UART_1_UartPutString(string1);  
 320              		.loc 1 102 0
 321 00b0 01A8     		add	r0, sp, #4
 322 00b2 FFF7FEFF 		bl	UART_1_UartPutString
 323              	.LVL46:
 103:main.c        ****                 AMux_1_Select(1);
 324              		.loc 1 103 0
 325 00b6 0120     		movs	r0, #1
 326 00b8 FFF7FEFF 		bl	AMux_1_Select
 327              	.LVL47:
 104:main.c        ****                 ADC_1_StartConvert();
 328              		.loc 1 104 0
 329 00bc FFF7FEFF 		bl	ADC_1_StartConvert
 330              	.LVL48:
 105:main.c        ****                 ADC_1_IsEndConversion(ADC_1_WAIT_FOR_RESULT);
 331              		.loc 1 105 0
 332 00c0 0220     		movs	r0, #2
 333 00c2 FFF7FEFF 		bl	ADC_1_IsEndConversion
 334              	.LVL49:
 106:main.c        ****                 vmShunt = ADC_1_GetResult32(0);
 335              		.loc 1 106 0
 336 00c6 0020     		movs	r0, #0
 337 00c8 FFF7FEFF 		bl	ADC_1_GetResult32
 338              	.LVL50:
 339 00cc 0400     		movs	r4, r0
 340              	.LVL51:
 107:main.c        ****                 ADC_1_StopConvert();
 341              		.loc 1 107 0
 342 00ce FFF7FEFF 		bl	ADC_1_StopConvert
 343              	.LVL52:
 108:main.c        ****                 vmShmV = ADC_1_CountsTo_mVolts(0, vmShunt);
ARM GAS  C:\Users\cdrow\AppData\Local\Temp\cctXuiCj.s 			page 9


 344              		.loc 1 108 0
 345 00d2 21B2     		sxth	r1, r4
 346 00d4 0020     		movs	r0, #0
 347 00d6 FFF7FEFF 		bl	ADC_1_CountsTo_mVolts
 348              	.LVL53:
 349 00da FFF7FEFF 		bl	__aeabi_i2f
 350              	.LVL54:
 109:main.c        ****                 //vmShmV = vmShmV*60.0/(32.0*50.0);
 110:main.c        ****                 sprintf(string1, "%3.3f, ", vmShmV);
 351              		.loc 1 110 0
 352 00de FFF7FEFF 		bl	__aeabi_f2d
 353              	.LVL55:
 354 00e2 0200     		movs	r2, r0
 355 00e4 0B00     		movs	r3, r1
 356 00e6 3B4E     		ldr	r6, .L19+12
 357 00e8 3100     		movs	r1, r6
 358 00ea 01A8     		add	r0, sp, #4
 359 00ec FFF7FEFF 		bl	sprintf
 360              	.LVL56:
 111:main.c        ****                 UART_1_UartPutString(string1);
 361              		.loc 1 111 0
 362 00f0 01A8     		add	r0, sp, #4
 363 00f2 FFF7FEFF 		bl	UART_1_UartPutString
 364              	.LVL57:
 112:main.c        ****                 
 113:main.c        ****                 AMux_1_Select(0);
 365              		.loc 1 113 0
 366 00f6 0020     		movs	r0, #0
 367 00f8 FFF7FEFF 		bl	AMux_1_Select
 368              	.LVL58:
 114:main.c        ****                 ADC_1_StartConvert();
 369              		.loc 1 114 0
 370 00fc FFF7FEFF 		bl	ADC_1_StartConvert
 371              	.LVL59:
 115:main.c        ****                 ADC_1_IsEndConversion(ADC_1_WAIT_FOR_RESULT);
 372              		.loc 1 115 0
 373 0100 0220     		movs	r0, #2
 374 0102 FFF7FEFF 		bl	ADC_1_IsEndConversion
 375              	.LVL60:
 116:main.c        ****                 vmShunt = ADC_1_GetResult32(0);
 376              		.loc 1 116 0
 377 0106 0020     		movs	r0, #0
 378 0108 FFF7FEFF 		bl	ADC_1_GetResult32
 379              	.LVL61:
 380 010c 0400     		movs	r4, r0
 381              	.LVL62:
 117:main.c        ****                 ADC_1_StopConvert();
 382              		.loc 1 117 0
 383 010e FFF7FEFF 		bl	ADC_1_StopConvert
 384              	.LVL63:
 118:main.c        ****                 vmBatmV = ADC_1_CountsTo_mVolts(0, vmShunt);
 385              		.loc 1 118 0
 386 0112 21B2     		sxth	r1, r4
 387 0114 0020     		movs	r0, #0
 388 0116 FFF7FEFF 		bl	ADC_1_CountsTo_mVolts
 389              	.LVL64:
 390 011a FFF7FEFF 		bl	__aeabi_i2f
ARM GAS  C:\Users\cdrow\AppData\Local\Temp\cctXuiCj.s 			page 10


 391              	.LVL65:
 119:main.c        ****                 vmBatmV = vmBatmV/1000.0;
 392              		.loc 1 119 0
 393 011e 2E49     		ldr	r1, .L19+16
 394 0120 FFF7FEFF 		bl	__aeabi_fdiv
 395              	.LVL66:
 120:main.c        ****                 sprintf(string1, "%3.3f, ", vmBatmV);
 396              		.loc 1 120 0
 397 0124 FFF7FEFF 		bl	__aeabi_f2d
 398              	.LVL67:
 399 0128 0200     		movs	r2, r0
 400 012a 0B00     		movs	r3, r1
 401 012c 3100     		movs	r1, r6
 402 012e 01A8     		add	r0, sp, #4
 403 0130 FFF7FEFF 		bl	sprintf
 404              	.LVL68:
 121:main.c        ****                 UART_1_UartPutString(string1);
 405              		.loc 1 121 0
 406 0134 01A8     		add	r0, sp, #4
 407 0136 FFF7FEFF 		bl	UART_1_UartPutString
 408              	.LVL69:
 122:main.c        ****                 
 123:main.c        ****                 I2C_1_I2CMasterReadBuf(0x08, batteryArray, 32, I2C_1_I2C_MODE_COMPLETE_XFER);
 409              		.loc 1 123 0
 410 013a 0023     		movs	r3, #0
 411 013c 2022     		movs	r2, #32
 412 013e 0EA9     		add	r1, sp, #56
 413 0140 0820     		movs	r0, #8
 414 0142 FFF7FEFF 		bl	I2C_1_I2CMasterReadBuf
 415              	.LVL70:
 416              	.LBB4:
 124:main.c        ****                 for(uint i = 0; i < 32; i=i+2){
 417              		.loc 1 124 0
 418 0146 0024     		movs	r4, #0
 419              	.LVL71:
 420 0148 0BE0     		b	.L12
 421              	.LVL72:
 422              	.L13:
 125:main.c        ****                     sprintf(string1, "%d.%d, ", batteryArray[i], batteryArray[i+1]);
 423              		.loc 1 125 0 discriminator 3
 424 014a 0EAB     		add	r3, sp, #56
 425 014c 1A5D     		ldrb	r2, [r3, r4]
 426 014e 611C     		adds	r1, r4, #1
 427 0150 5B5C     		ldrb	r3, [r3, r1]
 428 0152 2249     		ldr	r1, .L19+20
 429 0154 01A8     		add	r0, sp, #4
 430 0156 FFF7FEFF 		bl	sprintf
 431              	.LVL73:
 126:main.c        ****                     UART_1_UartPutString(string1);    
 432              		.loc 1 126 0 discriminator 3
 433 015a 01A8     		add	r0, sp, #4
 434 015c FFF7FEFF 		bl	UART_1_UartPutString
 435              	.LVL74:
 124:main.c        ****                 for(uint i = 0; i < 32; i=i+2){
 436              		.loc 1 124 0 discriminator 3
 437 0160 0234     		adds	r4, r4, #2
 438              	.LVL75:
ARM GAS  C:\Users\cdrow\AppData\Local\Temp\cctXuiCj.s 			page 11


 439              	.L12:
 124:main.c        ****                 for(uint i = 0; i < 32; i=i+2){
 440              		.loc 1 124 0 is_stmt 0 discriminator 1
 441 0162 1F2C     		cmp	r4, #31
 442 0164 F1D9     		bls	.L13
 443              	.LBE4:
 127:main.c        ****                 }
 128:main.c        ****                 I2C_1_I2CMasterReadBuf(0x09, resistorArray, 32, I2C_1_I2C_MODE_COMPLETE_XFER);
 444              		.loc 1 128 0 is_stmt 1
 445 0166 0023     		movs	r3, #0
 446 0168 2022     		movs	r2, #32
 447 016a 06A9     		add	r1, sp, #24
 448 016c 0920     		movs	r0, #9
 449 016e FFF7FEFF 		bl	I2C_1_I2CMasterReadBuf
 450              	.LVL76:
 451              	.LBB5:
 129:main.c        ****                 for(uint i = 0; i < 32; i=i+2){
 452              		.loc 1 129 0
 453 0172 0024     		movs	r4, #0
 454              	.LVL77:
 455 0174 0BE0     		b	.L14
 456              	.LVL78:
 457              	.L15:
 130:main.c        ****                     sprintf(string1, "%d.%d, ", resistorArray[i], resistorArray[i+1]);
 458              		.loc 1 130 0 discriminator 3
 459 0176 06AB     		add	r3, sp, #24
 460 0178 1A5D     		ldrb	r2, [r3, r4]
 461 017a 611C     		adds	r1, r4, #1
 462 017c 5B5C     		ldrb	r3, [r3, r1]
 463 017e 1749     		ldr	r1, .L19+20
 464 0180 01A8     		add	r0, sp, #4
 465 0182 FFF7FEFF 		bl	sprintf
 466              	.LVL79:
 131:main.c        ****                     UART_1_UartPutString(string1);    
 467              		.loc 1 131 0 discriminator 3
 468 0186 01A8     		add	r0, sp, #4
 469 0188 FFF7FEFF 		bl	UART_1_UartPutString
 470              	.LVL80:
 129:main.c        ****                 for(uint i = 0; i < 32; i=i+2){
 471              		.loc 1 129 0 discriminator 3
 472 018c 0234     		adds	r4, r4, #2
 473              	.LVL81:
 474              	.L14:
 129:main.c        ****                 for(uint i = 0; i < 32; i=i+2){
 475              		.loc 1 129 0 is_stmt 0 discriminator 1
 476 018e 1F2C     		cmp	r4, #31
 477 0190 F1D9     		bls	.L15
 478              	.LBE5:
 132:main.c        ****                 }
 133:main.c        ****                 sprintf(string1, "\r\n");
 479              		.loc 1 133 0 is_stmt 1
 480 0192 01A8     		add	r0, sp, #4
 481 0194 124B     		ldr	r3, .L19+24
 482 0196 1A88     		ldrh	r2, [r3]
 483 0198 0280     		strh	r2, [r0]
 484 019a 9B78     		ldrb	r3, [r3, #2]
 485 019c 8370     		strb	r3, [r0, #2]
ARM GAS  C:\Users\cdrow\AppData\Local\Temp\cctXuiCj.s 			page 12


 134:main.c        ****                 UART_1_UartPutString(string1);
 486              		.loc 1 134 0
 487 019e FFF7FEFF 		bl	UART_1_UartPutString
 488              	.LVL82:
 135:main.c        ****                 rxData = UART_1_UartGetChar();
 489              		.loc 1 135 0
 490 01a2 FFF7FEFF 		bl	UART_1_UartGetChar
 491              	.LVL83:
 492 01a6 0400     		movs	r4, r0
 493              	.LVL84:
 136:main.c        ****                 CyDelay(500);
 494              		.loc 1 136 0
 495 01a8 FA20     		movs	r0, #250
 496              	.LVL85:
 497 01aa 4000     		lsls	r0, r0, #1
 498 01ac FFF7FEFF 		bl	CyDelay
 499              	.LVL86:
 137:main.c        ****                                 
 138:main.c        ****                 
 139:main.c        ****                 if (rxData == 83){
 500              		.loc 1 139 0
 501 01b0 532C     		cmp	r4, #83
 502 01b2 02D1     		bne	.L16
 503              	.LVL87:
 140:main.c        ****                     stopPlease = true;
 141:main.c        ****                     Shutdown_Test();
 504              		.loc 1 141 0
 505 01b4 FFF7FEFF 		bl	Shutdown_Test
 506              	.LVL88:
 140:main.c        ****                     stopPlease = true;
 507              		.loc 1 140 0
 508 01b8 0125     		movs	r5, #1
 509              	.LVL89:
 510              	.L16:
  98:main.c        ****                 time = Timer_1_ReadCounter();
 511              		.loc 1 98 0
 512 01ba 002D     		cmp	r5, #0
 513 01bc 00D1     		bne	.LCB434
 514 01be 70E7     		b	.L17	@long jump
 515              	.LCB434:
 516              	.L10:
 142:main.c        ****                 }
 143:main.c        ****             }
 144:main.c        ****         }
 145:main.c        ****         CyDelay(10);
 517              		.loc 1 145 0
 518 01c0 0A20     		movs	r0, #10
 519 01c2 FFF7FEFF 		bl	CyDelay
 520              	.LVL90:
 146:main.c        ****         
 147:main.c        ****         
 148:main.c        ****         
 149:main.c        ****     }
 521              		.loc 1 149 0
 522 01c6 43E7     		b	.L18
 523              	.L20:
 524              		.align	2
ARM GAS  C:\Users\cdrow\AppData\Local\Temp\cctXuiCj.s 			page 13


 525              	.L19:
 526 01c8 48000000 		.word	.LC8
 527 01cc 78000000 		.word	.LC10
 528 01d0 94000000 		.word	.LC12
 529 01d4 9C000000 		.word	.LC14
 530 01d8 00007A44 		.word	1148846080
 531 01dc A4000000 		.word	.LC16
 532 01e0 00000000 		.word	.LC0
 533              		.cfi_endproc
 534              	.LFE36:
 535              		.size	main, .-main
 536              		.section	.rodata.str1.4,"aMS",%progbits,1
 537              		.align	2
 538              	.LC0:
 539 0000 0D0A00   		.ascii	"\015\012\000"
 540 0003 00       		.space	1
 541              	.LC2:
 542 0004 54696D65 		.ascii	"Time, Shunt(A), Bat(V), \000"
 542      2C205368 
 542      756E7428 
 542      41292C20 
 542      42617428 
 543 001d 000000   		.space	3
 544              	.LC4:
 545 0020 42617474 		.ascii	"Battery Temp %d, \000"
 545      65727920 
 545      54656D70 
 545      2025642C 
 545      2000
 546 0032 0000     		.space	2
 547              	.LC6:
 548 0034 52657369 		.ascii	"Resistor Temp %d, \000"
 548      73746F72 
 548      2054656D 
 548      70202564 
 548      2C2000
 549 0047 00       		.space	1
 550              	.LC8:
 551 0048 0D0A2045 		.ascii	"\015\012 Enter G to Start Test, Enter S to Stop \015"
 551      6E746572 
 551      20472074 
 551      6F205374 
 551      61727420 
 552 0073 0A00     		.ascii	"\012\000"
 553 0075 000000   		.space	3
 554              	.LC10:
 555 0078 0D0A2042 		.ascii	"\015\012 Beginning the Test... \015\012\000"
 555      6567696E 
 555      6E696E67 
 555      20746865 
 555      20546573 
 556              	.LC12:
 557 0094 0D0A2025 		.ascii	"\015\012 %d, \000"
 557      642C2000 
 558              	.LC14:
 559 009c 25332E33 		.ascii	"%3.3f, \000"
 559      662C2000 
ARM GAS  C:\Users\cdrow\AppData\Local\Temp\cctXuiCj.s 			page 14


 560              	.LC16:
 561 00a4 25642E25 		.ascii	"%d.%d, \000"
 561      642C2000 
 562              		.text
 563              	.Letext0:
 564              		.file 2 "Generated_Source\\PSoC4/cytypes.h"
 565              		.file 3 "c:\\program files (x86)\\cypress\\psoc creator\\4.4\\psoc creator\\import\\gnu\\arm\\5.4.
 566              		.file 4 "Generated_Source\\PSoC4/RED_LED.h"
 567              		.file 5 "Generated_Source\\PSoC4/RELAY.h"
 568              		.file 6 "c:\\program files (x86)\\cypress\\psoc creator\\4.4\\psoc creator\\import\\gnu\\arm\\5.4.
 569              		.file 7 "Generated_Source\\PSoC4/UART_1_SPI_UART.h"
 570              		.file 8 "Generated_Source\\PSoC4/CyLib.h"
 571              		.file 9 "Generated_Source\\PSoC4/AMux_1.h"
 572              		.file 10 "Generated_Source\\PSoC4/Opamp_1.h"
 573              		.file 11 "Generated_Source\\PSoC4/PGA_1.h"
 574              		.file 12 "Generated_Source\\PSoC4/Timer_1.h"
 575              		.file 13 "Generated_Source\\PSoC4/UART_1.h"
 576              		.file 14 "Generated_Source\\PSoC4/ADC_1.h"
 577              		.file 15 "Generated_Source\\PSoC4/I2C_1.h"
 578              		.file 16 "Generated_Source\\PSoC4/I2C_1_I2C.h"